
game.elf:     file format elf32-littlenios2
game.elf
architecture: nios2, flags 0x00000112:
EXEC_P, HAS_SYMS, D_PAGED
start address 0x020001b4

Program Header:
    LOAD off    0x00001000 vaddr 0x02000000 paddr 0x02000000 align 2**12
         filesz 0x00000020 memsz 0x00000020 flags r-x
    LOAD off    0x00001020 vaddr 0x02000020 paddr 0x02000020 align 2**12
         filesz 0x0000f8e0 memsz 0x0000f8e0 flags r-x
    LOAD off    0x00010900 vaddr 0x0200f900 paddr 0x02011484 align 2**12
         filesz 0x00001b84 memsz 0x00001b84 flags rw-
    LOAD off    0x00013008 vaddr 0x02013008 paddr 0x02013008 align 2**12
         filesz 0x00000000 memsz 0x0000030c flags rw-

Sections:
Idx Name          Size      VMA       LMA       File off  Algn
  0 .entry        00000020  02000000  02000000  00001000  2**5
                  CONTENTS, ALLOC, LOAD, READONLY, CODE
  1 .exceptions   00000194  02000020  02000020  00001020  2**2
                  CONTENTS, ALLOC, LOAD, READONLY, CODE
  2 .text         0000ef3c  020001b4  020001b4  000011b4  2**2
                  CONTENTS, ALLOC, LOAD, READONLY, CODE
  3 .rodata       00000810  0200f0f0  0200f0f0  000100f0  2**2
                  CONTENTS, ALLOC, LOAD, READONLY, DATA
  4 .rwdata       00001b84  0200f900  02011484  00010900  2**2
                  CONTENTS, ALLOC, LOAD, DATA, SMALL_DATA
  5 .bss          0000030c  02013008  02013008  00013008  2**2
                  ALLOC, SMALL_DATA
  6 .comment      00000026  00000000  00000000  00012484  2**0
                  CONTENTS, READONLY
  7 .debug_aranges 00000f38  00000000  00000000  000124b0  2**3
                  CONTENTS, READONLY, DEBUGGING
  8 .debug_pubnames 00001759  00000000  00000000  000133e8  2**0
                  CONTENTS, READONLY, DEBUGGING
  9 .debug_info   0002bb77  00000000  00000000  00014b41  2**0
                  CONTENTS, READONLY, DEBUGGING
 10 .debug_abbrev 00009952  00000000  00000000  000406b8  2**0
                  CONTENTS, READONLY, DEBUGGING
 11 .debug_line   000175d1  00000000  00000000  0004a00a  2**0
                  CONTENTS, READONLY, DEBUGGING
 12 .debug_frame  00001db8  00000000  00000000  000615dc  2**2
                  CONTENTS, READONLY, DEBUGGING
 13 .debug_str    000026cb  00000000  00000000  00063394  2**0
                  CONTENTS, READONLY, DEBUGGING
 14 .debug_loc    0000ce4b  00000000  00000000  00065a5f  2**0
                  CONTENTS, READONLY, DEBUGGING
 15 .debug_alt_sim_info 00000060  00000000  00000000  000728ac  2**2
                  CONTENTS, READONLY, DEBUGGING
 16 .debug_ranges 00000a88  00000000  00000000  00072910  2**3
                  CONTENTS, READONLY, DEBUGGING
 17 .thread_model 00000003  00000000  00000000  00076a6f  2**0
                  CONTENTS, READONLY
 18 .cpu          00000005  00000000  00000000  00076a72  2**0
                  CONTENTS, READONLY
 19 .simulation_enabled 00000001  00000000  00000000  00076a77  2**0
                  CONTENTS, READONLY
 20 .sysid_hash   00000004  00000000  00000000  00076a78  2**0
                  CONTENTS, READONLY
 21 .sysid_base   00000004  00000000  00000000  00076a7c  2**0
                  CONTENTS, READONLY
 22 .sysid_time   00000004  00000000  00000000  00076a80  2**0
                  CONTENTS, READONLY
 23 .stderr_dev   0000000b  00000000  00000000  00076a84  2**0
                  CONTENTS, READONLY
 24 .stdin_dev    0000000b  00000000  00000000  00076a8f  2**0
                  CONTENTS, READONLY
 25 .stdout_dev   0000000b  00000000  00000000  00076a9a  2**0
                  CONTENTS, READONLY
 26 .sopc_system_name 0000000f  00000000  00000000  00076aa5  2**0
                  CONTENTS, READONLY
 27 .quartus_project_dir 0000001b  00000000  00000000  00076ab4  2**0
                  CONTENTS, READONLY
 28 .jdi          0000476f  00000000  00000000  00076acf  2**0
                  CONTENTS, READONLY
 29 .sopcinfo     0003e62a  00000000  00000000  0007b23e  2**0
                  CONTENTS, READONLY
SYMBOL TABLE:
02000000 l    d  .entry	00000000 .entry
02000020 l    d  .exceptions	00000000 .exceptions
020001b4 l    d  .text	00000000 .text
0200f0f0 l    d  .rodata	00000000 .rodata
0200f900 l    d  .rwdata	00000000 .rwdata
02013008 l    d  .bss	00000000 .bss
00000000 l    d  .comment	00000000 .comment
00000000 l    d  .debug_aranges	00000000 .debug_aranges
00000000 l    d  .debug_pubnames	00000000 .debug_pubnames
00000000 l    d  .debug_info	00000000 .debug_info
00000000 l    d  .debug_abbrev	00000000 .debug_abbrev
00000000 l    d  .debug_line	00000000 .debug_line
00000000 l    d  .debug_frame	00000000 .debug_frame
00000000 l    d  .debug_str	00000000 .debug_str
00000000 l    d  .debug_loc	00000000 .debug_loc
00000000 l    d  .debug_alt_sim_info	00000000 .debug_alt_sim_info
00000000 l    d  .debug_ranges	00000000 .debug_ranges
020001fc l       .text	00000000 alt_after_alt_main
00000000 l    df *ABS*	00000000 alt_irq_handler.c
00000000 l    df *ABS*	00000000 game.c
02013008 l     O .bss	00000004 game_level
0201300c l     O .bss	00000004 score
02013010 l     O .bss	00000004 attempts
02013014 l     O .bss	00000004 current_position
00000000 l    df *ABS*	00000000 fp-bit.c
00000000 l    df *ABS*	00000000 fp-bit.c
00000000 l    df *ABS*	00000000 fp-bit.c
00000000 l    df *ABS*	00000000 fp-bit.c
00000000 l    df *ABS*	00000000 fp-bit.c
00000000 l    df *ABS*	00000000 dp-bit.c
00000000 l    df *ABS*	00000000 dp-bit.c
00000000 l    df *ABS*	00000000 lib2-divmod.c
02001098 l     F .text	0000007c udivmodsi4
00000000 l    df *ABS*	00000000 libgcc2.c
00000000 l    df *ABS*	00000000 libgcc2.c
00000000 l    df *ABS*	00000000 fp-bit.c
00000000 l    df *ABS*	00000000 fp-bit.c
00000000 l    df *ABS*	00000000 fp-bit.c
00000000 l    df *ABS*	00000000 dp-bit.c
00000000 l    df *ABS*	00000000 dp-bit.c
00000000 l    df *ABS*	00000000 dp-bit.c
00000000 l    df *ABS*	00000000 libgcc2.c
00000000 l    df *ABS*	00000000 difftime.c
00000000 l    df *ABS*	00000000 fopen.c
00000000 l    df *ABS*	00000000 fprintf.c
00000000 l    df *ABS*	00000000 fseek.c
00000000 l    df *ABS*	00000000 fstatr.c
00000000 l    df *ABS*	00000000 impure.c
0200f900 l     O .rwdata	00000400 impure_data
00000000 l    df *ABS*	00000000 int_errno.c
00000000 l    df *ABS*	00000000 makebuf.c
00000000 l    df *ABS*	00000000 mallocr.c
00000000 l    df *ABS*	00000000 openr.c
00000000 l    df *ABS*	00000000 printf.c
00000000 l    df *ABS*	00000000 puts.c
00000000 l    df *ABS*	00000000 rand.c
00000000 l    df *ABS*	00000000 refill.c
02002e10 l     F .text	0000001c lflush
00000000 l    df *ABS*	00000000 sbrkr.c
00000000 l    df *ABS*	00000000 stdio.c
00000000 l    df *ABS*	00000000 strlen.c
00000000 l    df *ABS*	00000000 time.c
00000000 l    df *ABS*	00000000 vfprintf.c
020030b8 l     F .text	00000058 __sprint_r
0200f49a l     O .rodata	00000010 blanks.3452
0200f48a l     O .rodata	00000010 zeroes.3453
00000000 l    df *ABS*	00000000 writer.c
00000000 l    df *ABS*	00000000 wsetup.c
00000000 l    df *ABS*	00000000 closer.c
00000000 l    df *ABS*	00000000 dtoa.c
02005204 l     F .text	00000218 quorem
00000000 l    df *ABS*	00000000 fflush.c
00000000 l    df *ABS*	00000000 findfp.c
02006c00 l     F .text	00000058 std
02006d0c l     F .text	00000008 __fp_lock
02006d14 l     F .text	00000008 __fp_unlock
00000000 l    df *ABS*	00000000 flags.c
00000000 l    df *ABS*	00000000 mallocr.c
00000000 l    df *ABS*	00000000 fvwrite.c
00000000 l    df *ABS*	00000000 fwalk.c
00000000 l    df *ABS*	00000000 gettimeofdayr.c
00000000 l    df *ABS*	00000000 isattyr.c
00000000 l    df *ABS*	00000000 locale.c
02011450 l     O .rwdata	00000004 charset
0200f4cc l     O .rodata	00000030 lconv
00000000 l    df *ABS*	00000000 lseekr.c
00000000 l    df *ABS*	00000000 memchr.c
00000000 l    df *ABS*	00000000 memcpy.c
00000000 l    df *ABS*	00000000 memmove.c
00000000 l    df *ABS*	00000000 memset.c
00000000 l    df *ABS*	00000000 mprec.c
0200f614 l     O .rodata	0000000c p05.2458
00000000 l    df *ABS*	00000000 readr.c
00000000 l    df *ABS*	00000000 mallocr.c
00000000 l    df *ABS*	00000000 s_isinfd.c
00000000 l    df *ABS*	00000000 s_isnand.c
00000000 l    df *ABS*	00000000 strcmp.c
00000000 l    df *ABS*	00000000 mallocr.c
00000000 l    df *ABS*	00000000 fclose.c
00000000 l    df *ABS*	00000000 libgcc2.c
00000000 l    df *ABS*	00000000 libgcc2.c
00000000 l    df *ABS*	00000000 dp-bit.c
0200a3c8 l     F .text	00000410 _fpadd_parts
00000000 l    df *ABS*	00000000 dp-bit.c
00000000 l    df *ABS*	00000000 dp-bit.c
00000000 l    df *ABS*	00000000 dp-bit.c
00000000 l    df *ABS*	00000000 dp-bit.c
00000000 l    df *ABS*	00000000 dp-bit.c
00000000 l    df *ABS*	00000000 dp-bit.c
00000000 l    df *ABS*	00000000 dp-bit.c
00000000 l    df *ABS*	00000000 dp-bit.c
00000000 l    df *ABS*	00000000 dp-bit.c
00000000 l    df *ABS*	00000000 alt_close.c
0200b470 l     F .text	00000060 alt_get_errno
00000000 l    df *ABS*	00000000 alt_dev.c
0200b4d0 l     F .text	0000002c alt_dev_null_write
00000000 l    df *ABS*	00000000 alt_errno.c
00000000 l    df *ABS*	00000000 alt_fstat.c
0200b5d0 l     F .text	00000060 alt_get_errno
00000000 l    df *ABS*	00000000 alt_gettod.c
00000000 l    df *ABS*	00000000 alt_isatty.c
0200b90c l     F .text	00000060 alt_get_errno
00000000 l    df *ABS*	00000000 alt_load.c
0200b9ec l     F .text	0000006c alt_load_section
00000000 l    df *ABS*	00000000 alt_lseek.c
0200bb48 l     F .text	00000060 alt_get_errno
00000000 l    df *ABS*	00000000 alt_main.c
00000000 l    df *ABS*	00000000 alt_malloc_lock.c
00000000 l    df *ABS*	00000000 alt_open.c
0200bc54 l     F .text	000000dc alt_file_locked
0200beb8 l     F .text	00000060 alt_get_errno
00000000 l    df *ABS*	00000000 alt_read.c
0200c038 l     F .text	00000060 alt_get_errno
00000000 l    df *ABS*	00000000 alt_release_fd.c
00000000 l    df *ABS*	00000000 alt_sbrk.c
0201146c l     O .rwdata	00000004 heap_end
00000000 l    df *ABS*	00000000 alt_tick.c
00000000 l    df *ABS*	00000000 alt_usleep.c
00000000 l    df *ABS*	00000000 alt_write.c
0200c4a8 l     F .text	00000060 alt_get_errno
00000000 l    df *ABS*	00000000 alt_sys_init.c
020102bc l     O .rwdata	00001060 jtag_uart_0
0201131c l     O .rwdata	00000120 lcd_display
0200c5ac l     F .text	00000038 alt_dev_reg
00000000 l    df *ABS*	00000000 altera_avalon_jtag_uart_fd.c
00000000 l    df *ABS*	00000000 altera_avalon_jtag_uart_init.c
0200c7ec l     F .text	00000228 altera_avalon_jtag_uart_irq
0200ca14 l     F .text	000000b0 altera_avalon_jtag_uart_timeout
00000000 l    df *ABS*	00000000 altera_avalon_jtag_uart_ioctl.c
00000000 l    df *ABS*	00000000 altera_avalon_jtag_uart_read.c
00000000 l    df *ABS*	00000000 altera_avalon_jtag_uart_write.c
00000000 l    df *ABS*	00000000 altera_avalon_lcd_16207.c
02011478 l     O .rwdata	00000004 colstart
0200d090 l     F .text	000000b8 lcd_write_command
0200d148 l     F .text	000000d4 lcd_write_data
0200d21c l     F .text	000000c4 lcd_clear_screen
0200d2e0 l     F .text	000001ec lcd_repaint_screen
0200d4cc l     F .text	000000c8 lcd_scroll_up
0200d594 l     F .text	000002d0 lcd_handle_escape
0200dd70 l     F .text	000000cc alt_lcd_16207_timeout
00000000 l    df *ABS*	00000000 altera_avalon_lcd_16207_fd.c
00000000 l    df *ABS*	00000000 altera_avalon_timer_sc.c
0200dfd0 l     F .text	00000070 alt_avalon_timer_sc_irq
00000000 l    df *ABS*	00000000 alt_alarm_start.c
00000000 l    df *ABS*	00000000 alt_busy_sleep.c
00000000 l    df *ABS*	00000000 alt_dcache_flush_all.c
00000000 l    df *ABS*	00000000 alt_dev_llist_insert.c
0200e468 l     F .text	00000060 alt_get_errno
00000000 l    df *ABS*	00000000 alt_do_ctors.c
00000000 l    df *ABS*	00000000 alt_do_dtors.c
00000000 l    df *ABS*	00000000 alt_find_dev.c
00000000 l    df *ABS*	00000000 alt_find_file.c
00000000 l    df *ABS*	00000000 alt_get_fd.c
00000000 l    df *ABS*	00000000 alt_icache_flush_all.c
00000000 l    df *ABS*	00000000 alt_iic.c
00000000 l    df *ABS*	00000000 alt_iic_isr_register.c
00000000 l    df *ABS*	00000000 alt_io_redirect.c
0200eaf8 l     F .text	000000c4 alt_open_fd
00000000 l    df *ABS*	00000000 alt_irq_vars.c
00000000 l    df *ABS*	00000000 altera_nios2_irq.c
00000000 l    df *ABS*	00000000 alt_icache_flush.c
00000000 l    df *ABS*	00000000 atexit.c
00000000 l    df *ABS*	00000000 ctype_.c
0200f77d l     O .rodata	00000180 _ctype_b
00000000 l    df *ABS*	00000000 exit.c
00000000 l    df *ABS*	00000000 memcmp.c
00000000 l    df *ABS*	00000000 __atexit.c
00000000 l    df *ABS*	00000000 __call_atexit.c
0200eed8 l     F .text	00000004 register_fini
00000000 l    df *ABS*	00000000 alt_exit.c
0200f08c l     F .text	00000040 alt_sim_halt
020082e4 g     F .text	00000094 _mprec_log10
020083d0 g     F .text	00000088 __any_on
02007a30 g     F .text	00000070 _isatty_r
0200f5ec g     O .rodata	00000028 __mprec_tinytens
0200bba8 g     F .text	0000006c alt_main
02002b04 g     F .text	000000a0 _puts_r
02013084 g     O .bss	00000100 alt_irq
02007b64 g     F .text	00000078 _lseek_r
02011484 g       *ABS*	00000000 __flash_rwdata_start
02006ec0 g     F .text	000000a0 __sflags
0200aee8 g     F .text	00000088 __eqdf2
020079bc g     F .text	00000074 _gettimeofday_r
02013314 g       *ABS*	00000000 __alt_heap_start
02002a8c g     F .text	00000044 printf
02002ea4 g     F .text	00000068 __sseek
02006c68 g     F .text	000000a4 __sinit
02007ac4 g     F .text	00000084 _setlocale_r
02006d68 g     F .text	00000068 __sfmoreglue
0200bc34 g     F .text	00000020 __malloc_unlock
02000c94 g     F .text	00000174 __divsf3
02007d60 g     F .text	000000e0 memmove
02006d58 g     F .text	00000010 _cleanup
02008458 g     F .text	000000bc _Balloc
0200aff8 g     F .text	00000088 __gtdf2
00000000  w      *UND*	00000000 __errno
02000000 g     F .entry	0000001c __reset
02000020 g       *ABS*	00000000 __flash_exceptions_start
020020cc g     F .text	00000074 _fstat_r
02013018 g     O .bss	00000004 errno
02013048 g     O .bss	00000004 alt_argv
0201943c g       *ABS*	00000000 _gp
0200c358 g     F .text	00000030 usleep
0201013c g     O .rwdata	00000180 alt_fd_list
0200e590 g     F .text	00000094 alt_find_dev
02007cc0 g     F .text	000000a0 memcpy
02006d4c g     F .text	0000000c _cleanup_r
02000fa0 g     F .text	000000f8 __floatsidf
0200ebbc g     F .text	00000078 alt_io_redirect
02000f18 g     F .text	00000088 __ltdf2
0200f0f0 g       *ABS*	00000000 __DTOR_END__
02002ba4 g     F .text	00000014 puts
0200ec34 g     F .text	00000020 altera_nios2_irq_init
02008234 g     F .text	000000b0 __ratio
0200cc2c g     F .text	00000224 altera_avalon_jtag_uart_read
00000000  w      *UND*	00000000 malloc
02002ad0 g     F .text	00000034 _printf_r
020011d4 g     F .text	00000008 __udivsi3
0200b84c g     F .text	000000c0 isatty
0200f4fc g     O .rodata	000000c8 __mprec_tens
02007aa0 g     F .text	00000008 __locale_charset
02013034 g     O .bss	00000008 alt_timezone
0200ec54 g     F .text	00000090 alt_icache_flush
0201301c g     O .bss	00000004 __malloc_top_pad
0201144c g     O .rwdata	00000004 __mb_cur_max
02007aa8 g     F .text	0000000c _localeconv_r
02008b50 g     F .text	0000003c __i2b
020073a0 g     F .text	0000049c __sfvwrite_r
02002e2c g     F .text	00000070 _sbrk_r
02008ecc g     F .text	00000078 _read_r
02010108 g     O .rwdata	0000000c __lc_ctype
02011464 g     O .rwdata	00000004 alt_max_fd
020018e0 g     F .text	00000138 __unpack_d
02009718 g     F .text	00000110 _fclose_r
02006bcc g     F .text	00000034 fflush
02013020 g     O .bss	00000004 __malloc_max_sbrked_mem
0200a858 g     F .text	00000074 __adddf3
02008114 g     F .text	00000120 __b2d
02009e18 g     F .text	000005b0 __umoddi3
0200ba58 g     F .text	000000f0 lseek
02011440 g     O .rwdata	00000004 _global_impure_ptr
02008f44 g     F .text	000005f4 _realloc_r
02013314 g       *ABS*	00000000 __bss_end
0200ea00 g     F .text	000000f8 alt_iic_isr_register
0200c24c g     F .text	0000010c alt_tick
0200983c g     F .text	000005dc __udivdi3
0200f5c4 g     O .rodata	00000028 __mprec_bigtens
02008dac g     F .text	00000120 __s2b
0200b1e0 g     F .text	00000194 __floatunsidf
02008034 g     F .text	00000060 __mcmp
02011480 g     O .rwdata	00000004 __ctype_ptr
02006d34 g     F .text	00000018 __fp_lock_all
0200e9b8 g     F .text	00000048 alt_ic_irq_enabled
0200c1b4 g     F .text	00000098 alt_alarm_stop
020002dc g     F .text	00000088 show_welcome_screen
02013058 g     O .bss	00000004 alt_irq_active
020000ec g     F .exceptions	000000c8 alt_irq_handler
02010114 g     O .rwdata	00000028 alt_dev_null
020004a8 g     F .text	000002ac start_game
0200145c g     F .text	000000c8 __unpack_f
0200e370 g     F .text	00000044 alt_dcache_flush_all
02007f00 g     F .text	00000070 __hi0bits
0200b108 g     F .text	000000d8 __fixdfsi
02011484 g       *ABS*	00000000 __ram_rwdata_end
0201145c g     O .rwdata	00000008 alt_dev_list
0200c388 g     F .text	00000120 write
0200f900 g       *ABS*	00000000 __ram_rodata_end
0200b4fc g     F .text	000000d4 fstat
02001c0c g     F .text	0000002c fprintf
02008c8c g     F .text	00000120 __pow5mult
02013028 g     O .bss	00000004 __nlocale_changed
020011dc g     F .text	00000008 __umodsi3
02013314 g       *ABS*	00000000 end
020012fc g     F .text	00000160 __pack_f
0200d864 g     F .text	0000050c altera_avalon_lcd_16207_write
02000838 g     F .text	00000214 show_result
020020a8 g     F .text	00000024 fseek
0200c72c g     F .text	000000c0 altera_avalon_jtag_uart_init
0200f0ec g       *ABS*	00000000 __CTOR_LIST__
02800000 g       *ABS*	00000000 __alt_stack_pointer
0200e040 g     F .text	00000090 alt_avalon_timer_sc_init
0200127c g     F .text	00000080 __clzsi2
0200ce50 g     F .text	00000240 altera_avalon_jtag_uart_write
02006c58 g     F .text	00000004 __sfp_lock_acquire
02007bdc g     F .text	000000e4 memchr
02003110 g     F .text	00001eac ___vfprintf_internal_r
0200708c g     F .text	00000314 _free_r
0200eedc g     F .text	000001b0 __call_exitprocs
0201302c g     O .bss	00000004 __mlocale_changed
02011448 g     O .rwdata	00000004 __malloc_sbrk_base
020001b4 g     F .text	0000004c _start
02013050 g     O .bss	00000004 _alt_tick_rate
02002bd4 g     F .text	00000078 rand
0200881c g     F .text	0000014c __lshift
02013054 g     O .bss	00000004 _alt_nticks
0200bf18 g     F .text	00000120 read
0200c53c g     F .text	00000070 alt_sys_init
02000e80 g     F .text	00000098 __floatsisf
02000364 g     F .text	00000144 show_level_selection
02002a14 g     F .text	00000078 _open_r
0200eda4 g     F .text	00000134 __register_exitproc
02008968 g     F .text	000001e8 __multiply
0200cac4 g     F .text	00000074 altera_avalon_jtag_uart_close
0200f900 g       *ABS*	00000000 __ram_rwdata_start
0200f0f0 g       *ABS*	00000000 __ram_rodata_start
0201305c g     O .bss	00000028 __malloc_current_mallinfo
02008514 g     F .text	0000017c __d2b
0200c5e4 g     F .text	00000058 altera_avalon_jtag_uart_read_fd
0200e744 g     F .text	000000b8 alt_get_fd
0200e224 g     F .text	0000014c alt_busy_sleep
02001a18 g     F .text	000000c8 __fpcmp_parts_d
02005194 g     F .text	00000070 _close_r
02000754 g     F .text	000000b0 display_target
0200ed30 g     F .text	00000074 memcmp
0200c694 g     F .text	00000048 altera_avalon_jtag_uart_close_fd
02013314 g       *ABS*	00000000 __alt_stack_base
0200c6dc g     F .text	00000050 altera_avalon_jtag_uart_ioctl_fd
02005058 g     F .text	0000013c __swsetup_r
0200ac90 g     F .text	00000258 __divdf3
02006dd0 g     F .text	000000f0 __sfp
02008378 g     F .text	00000058 __copybits
0200fd00 g     O .rwdata	00000408 __malloc_av_
02006c64 g     F .text	00000004 __sinit_lock_release
0200a8cc g     F .text	000003c4 __muldf3
02002f88 g     F .text	00000060 __sread
0200f314 g     O .rodata	00000010 __thenan_sf
0200e624 g     F .text	00000120 alt_find_file
0200e3b4 g     F .text	000000b4 alt_dev_llist_insert
0200bc14 g     F .text	00000020 __malloc_lock
02001c38 g     F .text	00000034 _fprintf_r
0200c0f8 g     F .text	000000bc sbrk
020069d0 g     F .text	000001fc _fflush_r
02009664 g     F .text	000000b4 _calloc_r
0200b630 g     F .text	0000021c gettimeofday
02001bf0 g     F .text	0000001c fopen
02013008 g       *ABS*	00000000 __bss_start
02007e40 g     F .text	00000098 memset
02000200 g     F .text	000000dc main
02000a4c g     F .text	00000068 delay_ms
0201304c g     O .bss	00000004 alt_envp
02013024 g     O .bss	00000004 __malloc_max_total_mem
0200c63c g     F .text	00000058 altera_avalon_jtag_uart_write_fd
02002bb8 g     F .text	0000001c srand
02000e08 g     F .text	00000078 __ltsf2
0200de3c g     F .text	0000013c altera_avalon_lcd_16207_init
02002e9c g     F .text	00000008 __sclose
02800000 g       *ABS*	00000000 __alt_heap_limit
02009828 g     F .text	00000014 fclose
02013184 g     O .bss	00000190 _atexit0
0200541c g     F .text	000015b4 _dtoa_r
020022d4 g     F .text	00000740 _malloc_r
0200305c g     F .text	0000005c time
02011468 g     O .rwdata	00000004 alt_errno
02007904 g     F .text	000000b8 _fwalk
02001114 g     F .text	00000060 __divsi3
0200f620 g     O .rodata	00000014 __thenan_df
02006f60 g     F .text	0000012c _malloc_trim_r
0200f0f0 g       *ABS*	00000000 __CTOR_END__
02000ab4 g     F .text	000001e0 __mulsf3
020095a8 g     F .text	000000bc strcmp
0200f0f0 g       *ABS*	00000000 __flash_rodata_start
0200f0f0 g       *ABS*	00000000 __DTOR_LIST__
0200af70 g     F .text	00000088 __nedf2
0200c508 g     F .text	00000034 alt_irq_init
0200c098 g     F .text	00000060 alt_release_fd
0200f324 g     O .rodata	00000100 __clz_tab
02013030 g     O .bss	00000004 _PathLocale
02001ae0 g     F .text	0000001c difftime
0200ece4 g     F .text	00000014 atexit
02004fe0 g     F .text	00000078 _write_r
02007b48 g     F .text	0000001c setlocale
0201143c g     O .rwdata	00000004 _impure_ptr
02013044 g     O .bss	00000004 alt_argc
0200e52c g     F .text	00000064 _do_dtors
02001c6c g     F .text	0000043c _fseek_r
02002c4c g     F .text	000001c4 __srefill_r
02000000 g       *ABS*	00000000 __alt_mem_sdram_0
02000020 g       .exceptions	00000000 alt_irq_entry
02008094 g     F .text	00000080 __ulp
02009538 g     F .text	00000040 __isinfd
02006d1c g     F .text	00000018 __fp_unlock_all
0200df78 g     F .text	00000058 altera_avalon_lcd_16207_write_fd
02011454 g     O .rwdata	00000008 alt_fs_list
0201303c g     O .bss	00000008 alt_resettime
02000020 g       *ABS*	00000000 __ram_exceptions_start
02007ab4 g     F .text	00000010 localeconv
0200e82c g     F .text	00000050 alt_ic_isr_register
02011484 g       *ABS*	00000000 _edata
02013314 g       *ABS*	00000000 _end
020001b4 g       *ABS*	00000000 __ram_exceptions_end
0200cb38 g     F .text	000000f4 altera_avalon_jtag_uart_ioctl
0200e918 g     F .text	000000a0 alt_ic_irq_disable
02002f0c g     F .text	0000007c __swrite
02000804 g     F .text	00000034 get_random_position
02011444 g     O .rwdata	00000004 __malloc_trim_threshold
0200ecf8 g     F .text	00000038 exit
0200783c g     F .text	000000c8 _fwalk_reent
02008690 g     F .text	0000018c __mdiff
02001174 g     F .text	00000060 __modsi3
02800000 g       *ABS*	00000000 __alt_data_end
02000020 g     F .exceptions	00000000 alt_exception
02006c5c g     F .text	00000004 __sfp_lock_release
0200f67c g     O .rodata	00000101 _ctype_
02001524 g     F .text	000000a8 __fpcmp_parts_f
02001afc g     F .text	000000f4 _fopen_r
0200f0cc g     F .text	00000020 _exit
02009578 g     F .text	00000030 __isnand
0200e0d0 g     F .text	00000154 alt_alarm_start
020011e4 g     F .text	00000098 __muldi3
02002140 g     F .text	00000194 __smakebuf_r
02002fe8 g     F .text	00000074 strlen
0200bd30 g     F .text	00000188 open
0200b080 g     F .text	00000088 __gedf2
0200e7fc g     F .text	00000030 alt_icache_flush_all
0201147c g     O .rwdata	00000004 alt_priority_mask
0200e87c g     F .text	0000009c alt_ic_irq_enable
02004fbc g     F .text	00000024 __vfprintf_internal
0200a7d8 g     F .text	00000080 __subdf3
02007f70 g     F .text	000000c4 __lo0bits
02011470 g     O .rwdata	00000008 alt_alarm_list
0200e4c8 g     F .text	00000064 _do_ctors
0200b374 g     F .text	000000fc close
0200b96c g     F .text	00000080 alt_load
020015cc g     F .text	00000314 __pack_d
00000000  w      *UND*	00000000 free
02006c60 g     F .text	00000004 __sinit_lock_acquire
02008b8c g     F .text	00000100 __multadd
02007ed8 g     F .text	00000028 _Bfree



Disassembly of section .entry:

02000000 <__reset>:
#if NIOS2_ICACHE_SIZE > 0 && defined(ALT_ALLOW_CODE_AT_RESET) && !defined(ALT_SIM_OPTIMIZE)
    /* Assume the instruction cache size is always a power of two. */
#if NIOS2_ICACHE_SIZE > 0x8000
    movhi r2, %hi(NIOS2_ICACHE_SIZE)
#else
    movui r2, NIOS2_ICACHE_SIZE
 2000000:	00840014 	movui	r2,4096
#endif

0:
    initi r2
 2000004:	1001483a 	initi	r2
    addi r2, r2, -NIOS2_ICACHE_LINE_SIZE
 2000008:	10bff804 	addi	r2,r2,-32
    bgt r2, zero, 0b
 200000c:	00bffd16 	blt	zero,r2,2000004 <__reset+0x4>
 * Jump to the _start entry point in the .text section if reset code
 * is allowed or if optimizing for RTL simulation.
 */
#if defined(ALT_ALLOW_CODE_AT_RESET) || defined(ALT_SIM_OPTIMIZE)
    /* Jump to the _start entry point in the .text section. */
    movhi r1, %hi(_start)
 2000010:	00408034 	movhi	at,512
    ori r1, r1, %lo(_start)
 2000014:	08406d14 	ori	at,at,436
    jmp r1
 2000018:	0800683a 	jmp	at
 200001c:	00000000 	call	0 <__alt_mem_sdram_0-0x2000000>

Disassembly of section .exceptions:

02000020 <alt_exception>:
         * Process an exception.  For all exceptions we must preserve all
         * caller saved registers on the stack (See the Nios2 ABI
         * documentation for details).
         */

        addi  sp, sp, -76
 2000020:	deffed04 	addi	sp,sp,-76

#endif

#endif

        stw   ra,  0(sp)
 2000024:	dfc00015 	stw	ra,0(sp)
        /*
         * Leave a gap in the stack frame at 4(sp) for the muldiv handler to
         * store zero into.
         */

        stw   r1,   8(sp)
 2000028:	d8400215 	stw	at,8(sp)
        stw   r2,  12(sp)
 200002c:	d8800315 	stw	r2,12(sp)
        stw   r3,  16(sp)
 2000030:	d8c00415 	stw	r3,16(sp)
        stw   r4,  20(sp)
 2000034:	d9000515 	stw	r4,20(sp)
        stw   r5,  24(sp)
 2000038:	d9400615 	stw	r5,24(sp)
        stw   r6,  28(sp)
 200003c:	d9800715 	stw	r6,28(sp)
        stw   r7,  32(sp)
 2000040:	d9c00815 	stw	r7,32(sp)

        rdctl r5, estatus
 2000044:	000b307a 	rdctl	r5,estatus

        stw   r8,  36(sp)
 2000048:	da000915 	stw	r8,36(sp)
        stw   r9,  40(sp)
 200004c:	da400a15 	stw	r9,40(sp)
        stw   r10, 44(sp)
 2000050:	da800b15 	stw	r10,44(sp)
        stw   r11, 48(sp)
 2000054:	dac00c15 	stw	r11,48(sp)
        stw   r12, 52(sp)
 2000058:	db000d15 	stw	r12,52(sp)
        stw   r13, 56(sp)
 200005c:	db400e15 	stw	r13,56(sp)
        stw   r14, 60(sp)
 2000060:	db800f15 	stw	r14,60(sp)
        stw   r15, 64(sp)
 2000064:	dbc01015 	stw	r15,64(sp)
        /*
         * ea-4 contains the address of the instruction being executed
         * when the exception occured. For interrupt exceptions, we will
         * will be re-issue the isntruction. Store it in 72(sp)
         */
        stw   r5,  68(sp)  /* estatus */
 2000068:	d9401115 	stw	r5,68(sp)
        addi  r15, ea, -4  /* instruction that caused exception */
 200006c:	ebffff04 	addi	r15,ea,-4
        stw   r15,  72(sp)
 2000070:	dbc01215 	stw	r15,72(sp)
#else
        /*
         * Test to see if the exception was a software exception or caused 
         * by an external interrupt, and vector accordingly.
         */
        rdctl r4, ipending
 2000074:	0009313a 	rdctl	r4,ipending
        andi  r2, r5, 1
 2000078:	2880004c 	andi	r2,r5,1
        beq   r2, zero, .Lnot_irq
 200007c:	10000326 	beq	r2,zero,200008c <alt_exception+0x6c>
        beq   r4, zero, .Lnot_irq
 2000080:	20000226 	beq	r4,zero,200008c <alt_exception+0x6c>
        /*
         * Now that all necessary registers have been preserved, call 
         * alt_irq_handler() to process the interrupts.
         */

        call alt_irq_handler
 2000084:	20000ec0 	call	20000ec <alt_irq_handler>

        .section .exceptions.irqreturn, "xa"

        br    .Lexception_exit
 2000088:	00000306 	br	2000098 <alt_exception+0x78>
         * upon completion, so we write ea (address of instruction *after*
         * the one where the exception occured) into 72(sp). The actual
         * instruction that caused the exception is written in r2, which these
         * handlers will utilize.
         */
        stw   ea,  72(sp)  /* Don't re-issue */
 200008c:	df401215 	stw	ea,72(sp)
        ldw   r2, -4(ea)   /* Instruction that caused exception */
 2000090:	e8bfff17 	ldw	r2,-4(ea)
#ifdef NIOS2_HAS_DEBUG_STUB
       /*
        *  Either tell the user now (if there is a debugger attached) or go into
        *  the debug monitor which will loop until a debugger is attached.
        */
        break
 2000094:	003da03a 	break	0
        /* 
         * Restore the saved registers, so that all general purpose registers 
         * have been restored to their state at the time the interrupt occured.
         */

        ldw   r5,  68(sp)
 2000098:	d9401117 	ldw	r5,68(sp)
        ldw   ea,  72(sp)  /* This becomes the PC once eret is executed */
 200009c:	df401217 	ldw	ea,72(sp)
        ldw   ra,   0(sp)
 20000a0:	dfc00017 	ldw	ra,0(sp)

        wrctl estatus, r5
 20000a4:	2801707a 	wrctl	estatus,r5

        ldw   r1,   8(sp)
 20000a8:	d8400217 	ldw	at,8(sp)
        ldw   r2,  12(sp)
 20000ac:	d8800317 	ldw	r2,12(sp)
        ldw   r3,  16(sp)
 20000b0:	d8c00417 	ldw	r3,16(sp)
        ldw   r4,  20(sp)
 20000b4:	d9000517 	ldw	r4,20(sp)
        ldw   r5,  24(sp)
 20000b8:	d9400617 	ldw	r5,24(sp)
        ldw   r6,  28(sp)
 20000bc:	d9800717 	ldw	r6,28(sp)
        ldw   r7,  32(sp)
 20000c0:	d9c00817 	ldw	r7,32(sp)
#ifdef ALT_STACK_CHECK
        ldw   et, %gprel(alt_exception_old_stack_limit)(gp)
#endif
#endif

        ldw   r8,  36(sp)
 20000c4:	da000917 	ldw	r8,36(sp)
        ldw   r9,  40(sp)
 20000c8:	da400a17 	ldw	r9,40(sp)
        ldw   r10, 44(sp)
 20000cc:	da800b17 	ldw	r10,44(sp)
        ldw   r11, 48(sp)
 20000d0:	dac00c17 	ldw	r11,48(sp)
        ldw   r12, 52(sp)
 20000d4:	db000d17 	ldw	r12,52(sp)
        ldw   r13, 56(sp)
 20000d8:	db400e17 	ldw	r13,56(sp)
        ldw   r14, 60(sp)
 20000dc:	db800f17 	ldw	r14,60(sp)
        ldw   r15, 64(sp)
 20000e0:	dbc01017 	ldw	r15,64(sp)
#endif

        ldw   sp,  76(sp)

#else
        addi  sp, sp, 76
 20000e4:	dec01304 	addi	sp,sp,76

        /*
         * Return to the interrupted instruction.
         */

        eret
 20000e8:	ef80083a 	eret

020000ec <alt_irq_handler>:
 * instruction is present if the macro ALT_CI_INTERRUPT_VECTOR defined.
 */

void alt_irq_handler (void) __attribute__ ((section (".exceptions")));
void alt_irq_handler (void)
{
 20000ec:	defff904 	addi	sp,sp,-28
 20000f0:	dfc00615 	stw	ra,24(sp)
 20000f4:	df000515 	stw	fp,20(sp)
 20000f8:	df000504 	addi	fp,sp,20
#ifndef NIOS2_EIC_PRESENT
static ALT_INLINE alt_u32 ALT_ALWAYS_INLINE alt_irq_pending (void)
{
  alt_u32 active;

  NIOS2_READ_IPENDING (active);
 20000fc:	0005313a 	rdctl	r2,ipending
 2000100:	e0bffc15 	stw	r2,-16(fp)

  return active;
 2000104:	e0bffc17 	ldw	r2,-16(fp)
   * Consider the case where the high priority interupt is asserted during
   * the interrupt entry sequence for a lower priority interrupt to see why
   * this is the case.
   */

  active = alt_irq_pending ();
 2000108:	e0bfff15 	stw	r2,-4(fp)

  do
  {
    i = 0;
 200010c:	e03ffd15 	stw	zero,-12(fp)
    mask = 1;
 2000110:	00800044 	movi	r2,1
 2000114:	e0bffe15 	stw	r2,-8(fp)
     * called to clear the interrupt condition.
     */

    do
    {
      if (active & mask)
 2000118:	e0ffff17 	ldw	r3,-4(fp)
 200011c:	e0bffe17 	ldw	r2,-8(fp)
 2000120:	1884703a 	and	r2,r3,r2
 2000124:	1005003a 	cmpeq	r2,r2,zero
 2000128:	1000161e 	bne	r2,zero,2000184 <alt_irq_handler+0x98>
      { 
#ifdef ALT_ENHANCED_INTERRUPT_API_PRESENT
        alt_irq[i].handler(alt_irq[i].context); 
 200012c:	e0bffd17 	ldw	r2,-12(fp)
 2000130:	00c08074 	movhi	r3,513
 2000134:	18cc2104 	addi	r3,r3,12420
 2000138:	100490fa 	slli	r2,r2,3
 200013c:	10c5883a 	add	r2,r2,r3
 2000140:	11400017 	ldw	r5,0(r2)
 2000144:	e0bffd17 	ldw	r2,-12(fp)
 2000148:	00c08074 	movhi	r3,513
 200014c:	18cc2104 	addi	r3,r3,12420
 2000150:	100490fa 	slli	r2,r2,3
 2000154:	10c5883a 	add	r2,r2,r3
 2000158:	10800104 	addi	r2,r2,4
 200015c:	11000017 	ldw	r4,0(r2)
 2000160:	283ee83a 	callr	r5
#ifndef NIOS2_EIC_PRESENT
static ALT_INLINE alt_u32 ALT_ALWAYS_INLINE alt_irq_pending (void)
{
  alt_u32 active;

  NIOS2_READ_IPENDING (active);
 2000164:	0005313a 	rdctl	r2,ipending
 2000168:	e0bffb15 	stw	r2,-20(fp)

  return active;
 200016c:	e0bffb17 	ldw	r2,-20(fp)
      mask <<= 1;
      i++;

    } while (1);

    active = alt_irq_pending ();
 2000170:	e0bfff15 	stw	r2,-4(fp)
    
  } while (active);
 2000174:	e0bfff17 	ldw	r2,-4(fp)
 2000178:	1004c03a 	cmpne	r2,r2,zero
 200017c:	103fe31e 	bne	r2,zero,200010c <alt_irq_handler+0x20>
 2000180:	00000706 	br	20001a0 <alt_irq_handler+0xb4>
#else
        alt_irq[i].handler(alt_irq[i].context, i); 
#endif
        break;
      }
      mask <<= 1;
 2000184:	e0bffe17 	ldw	r2,-8(fp)
 2000188:	1085883a 	add	r2,r2,r2
 200018c:	e0bffe15 	stw	r2,-8(fp)
      i++;
 2000190:	e0bffd17 	ldw	r2,-12(fp)
 2000194:	10800044 	addi	r2,r2,1
 2000198:	e0bffd15 	stw	r2,-12(fp)

    } while (1);
 200019c:	003fde06 	br	2000118 <alt_irq_handler+0x2c>
  /*
   * Notify the operating system that interrupt processing is complete.
   */ 

  ALT_OS_INT_EXIT();
}
 20001a0:	e037883a 	mov	sp,fp
 20001a4:	dfc00117 	ldw	ra,4(sp)
 20001a8:	df000017 	ldw	fp,0(sp)
 20001ac:	dec00204 	addi	sp,sp,8
 20001b0:	f800283a 	ret

Disassembly of section .text:

020001b4 <_start>:

    /* Assume the data cache size is always a power of two. */
#if NIOS2_DCACHE_SIZE > 0x8000
    movhi r2, %hi(NIOS2_DCACHE_SIZE)
#else
    movui r2, NIOS2_DCACHE_SIZE
 20001b4:	00820014 	movui	r2,2048
#endif

0:
    initd 0(r2)
 20001b8:	10000033 	initd	0(r2)
    addi r2, r2, -NIOS2_DCACHE_LINE_SIZE
 20001bc:	10bff804 	addi	r2,r2,-32
    bgt r2, zero, 0b
 20001c0:	00bffd16 	blt	zero,r2,20001b8 <_start+0x4>
#if (NIOS2_NUM_OF_SHADOW_REG_SETS == 0)    
    /*
     * Now that the caches are initialized, set up the stack pointer.
     * The value provided by the linker is assumed to be correctly aligned.
     */
    movhi sp, %hi(__alt_stack_pointer)
 20001c4:	06c0a034 	movhi	sp,640
    ori sp, sp, %lo(__alt_stack_pointer)
 20001c8:	dec00014 	ori	sp,sp,0

    /* Set up the global pointer. */
    movhi gp, %hi(_gp)
 20001cc:	06808074 	movhi	gp,513
    ori gp, gp, %lo(_gp)
 20001d0:	d6a50f14 	ori	gp,gp,37948
 */
#ifndef ALT_SIM_OPTIMIZE
    /* Log that the BSS is about to be cleared. */
    ALT_LOG_PUTS(alt_log_msg_bss)

    movhi r2, %hi(__bss_start)
 20001d4:	00808074 	movhi	r2,513
    ori r2, r2, %lo(__bss_start)
 20001d8:	108c0214 	ori	r2,r2,12296

    movhi r3, %hi(__bss_end)
 20001dc:	00c08074 	movhi	r3,513
    ori r3, r3, %lo(__bss_end)
 20001e0:	18ccc514 	ori	r3,r3,13076

    beq r2, r3, 1f
 20001e4:	10c00326 	beq	r2,r3,20001f4 <_start+0x40>

0:
    stw zero, (r2)
 20001e8:	10000015 	stw	zero,0(r2)
    addi r2, r2, 4
 20001ec:	10800104 	addi	r2,r2,4
    bltu r2, r3, 0b
 20001f0:	10fffd36 	bltu	r2,r3,20001e8 <_start+0x34>
     * section aren't defined until alt_load() has been called).
     */
    mov   et, zero
#endif

    call alt_load
 20001f4:	200b96c0 	call	200b96c <alt_load>

    /* Log that alt_main is about to be called. */
    ALT_LOG_PUTS(alt_log_msg_alt_main)

    /* Call the C entry point. It should never return. */
    call alt_main
 20001f8:	200bba80 	call	200bba8 <alt_main>

020001fc <alt_after_alt_main>:

    /* Wait in infinite loop in case alt_main does return. */
alt_after_alt_main:
    br alt_after_alt_main
 20001fc:	003fff06 	br	20001fc <alt_after_alt_main>

02000200 <main>:
void display_target(FILE *lcd, int position);
int get_random_position();
void delay_ms(int milliseconds);

int main(void)
{
 2000200:	defffc04 	addi	sp,sp,-16
 2000204:	dfc00315 	stw	ra,12(sp)
 2000208:	df000215 	stw	fp,8(sp)
 200020c:	df000204 	addi	fp,sp,8
    FILE *lcd = LCD_OPEN();
 2000210:	01008074 	movhi	r4,513
 2000214:	213c3c04 	addi	r4,r4,-3856
 2000218:	01408074 	movhi	r5,513
 200021c:	297c4104 	addi	r5,r5,-3836
 2000220:	2001bf00 	call	2001bf0 <fopen>
 2000224:	e0bffe15 	stw	r2,-8(fp)
    if(lcd == NULL) return 1;
 2000228:	e0bffe17 	ldw	r2,-8(fp)
 200022c:	1004c03a 	cmpne	r2,r2,zero
 2000230:	1000031e 	bne	r2,zero,2000240 <main+0x40>
 2000234:	00800044 	movi	r2,1
 2000238:	e0bfff15 	stw	r2,-4(fp)
 200023c:	00002106 	br	20002c4 <main+0xc4>

    while(1)
    {
        show_welcome_screen(lcd);
 2000240:	e13ffe17 	ldw	r4,-8(fp)
 2000244:	20002dc0 	call	20002dc <show_welcome_screen>
        printf("\nshow welcome screen\n");
 2000248:	01008074 	movhi	r4,513
 200024c:	213c4204 	addi	r4,r4,-3832
 2000250:	2002ba40 	call	2002ba4 <puts>
        usleep(2000000); // Wait 2 seconds
 2000254:	010007f4 	movhi	r4,31
 2000258:	21212004 	addi	r4,r4,-31616
 200025c:	200c3580 	call	200c358 <usleep>


        show_level_selection(lcd);
 2000260:	e13ffe17 	ldw	r4,-8(fp)
 2000264:	20003640 	call	2000364 <show_level_selection>
        printf("show level selection\n");
 2000268:	01008074 	movhi	r4,513
 200026c:	213c4804 	addi	r4,r4,-3808
 2000270:	2002ba40 	call	2002ba4 <puts>
        usleep(2000000); // Wait for level selection
 2000274:	010007f4 	movhi	r4,31
 2000278:	21212004 	addi	r4,r4,-31616
 200027c:	200c3580 	call	200c358 <usleep>

        start_game(lcd);
 2000280:	e13ffe17 	ldw	r4,-8(fp)
 2000284:	20004a80 	call	20004a8 <start_game>
        printf("\nstart_game\n");
 2000288:	01008074 	movhi	r4,513
 200028c:	213c4e04 	addi	r4,r4,-3784
 2000290:	2002ba40 	call	2002ba4 <puts>
        usleep(1000000); // Game duration
 2000294:	010003f4 	movhi	r4,15
 2000298:	21109004 	addi	r4,r4,16960
 200029c:	200c3580 	call	200c358 <usleep>

        show_result(lcd);
 20002a0:	e13ffe17 	ldw	r4,-8(fp)
 20002a4:	20008380 	call	2000838 <show_result>
        printf("show result\n");
 20002a8:	01008074 	movhi	r4,513
 20002ac:	213c5104 	addi	r4,r4,-3772
 20002b0:	2002ba40 	call	2002ba4 <puts>
        usleep(5000000); // Show result for 5 seconds
 20002b4:	01001334 	movhi	r4,76
 20002b8:	2112d004 	addi	r4,r4,19264
 20002bc:	200c3580 	call	200c358 <usleep>


    }
 20002c0:	003fdf06 	br	2000240 <main+0x40>

    LCD_CLOSE(lcd);
    return 0;
}
 20002c4:	e0bfff17 	ldw	r2,-4(fp)
 20002c8:	e037883a 	mov	sp,fp
 20002cc:	dfc00117 	ldw	ra,4(sp)
 20002d0:	df000017 	ldw	fp,0(sp)
 20002d4:	dec00204 	addi	sp,sp,8
 20002d8:	f800283a 	ret

020002dc <show_welcome_screen>:

void show_welcome_screen(FILE *lcd)
{
 20002dc:	defff904 	addi	sp,sp,-28
 20002e0:	dfc00615 	stw	ra,24(sp)
 20002e4:	df000515 	stw	fp,20(sp)
 20002e8:	df000504 	addi	fp,sp,20
 20002ec:	e13fff15 	stw	r4,-4(fp)
    LCD_PRINTF(lcd, "%c%s %c%s %c%s Welcome to Mouse Hunt!\n", ESC, ESC_TOP_LEFT,
 20002f0:	008006c4 	movi	r2,27
 20002f4:	d8800015 	stw	r2,0(sp)
 20002f8:	00808074 	movhi	r2,513
 20002fc:	10bc6004 	addi	r2,r2,-3712
 2000300:	d8800115 	stw	r2,4(sp)
 2000304:	008006c4 	movi	r2,27
 2000308:	d8800215 	stw	r2,8(sp)
 200030c:	00808074 	movhi	r2,513
 2000310:	10bc6104 	addi	r2,r2,-3708
 2000314:	d8800315 	stw	r2,12(sp)
 2000318:	e13fff17 	ldw	r4,-4(fp)
 200031c:	01408074 	movhi	r5,513
 2000320:	297c5404 	addi	r5,r5,-3760
 2000324:	018006c4 	movi	r6,27
 2000328:	01c08074 	movhi	r7,513
 200032c:	39fc5e04 	addi	r7,r7,-3720
 2000330:	2001c0c0 	call	2001c0c <fprintf>
              ESC, ESC_CLEAR, ESC, ESC_COL1_INDENT5);
    LCD_PRINTF(lcd, "%c%s Catch mice with switches!\n", ESC, ESC_COL2_INDENT5);
 2000334:	e13fff17 	ldw	r4,-4(fp)
 2000338:	01408074 	movhi	r5,513
 200033c:	297c6304 	addi	r5,r5,-3700
 2000340:	018006c4 	movi	r6,27
 2000344:	01c08074 	movhi	r7,513
 2000348:	39fc6b04 	addi	r7,r7,-3668
 200034c:	2001c0c0 	call	2001c0c <fprintf>
}
 2000350:	e037883a 	mov	sp,fp
 2000354:	dfc00117 	ldw	ra,4(sp)
 2000358:	df000017 	ldw	fp,0(sp)
 200035c:	dec00204 	addi	sp,sp,8
 2000360:	f800283a 	ret

02000364 <show_level_selection>:

void show_level_selection(FILE *lcd)
{
 2000364:	defff804 	addi	sp,sp,-32
 2000368:	dfc00715 	stw	ra,28(sp)
 200036c:	df000615 	stw	fp,24(sp)
 2000370:	df000604 	addi	fp,sp,24
 2000374:	e13fff15 	stw	r4,-4(fp)
    LCD_PRINTF(lcd, "%c%s %c%s %c%s Select level:\n", ESC, ESC_TOP_LEFT,
 2000378:	008006c4 	movi	r2,27
 200037c:	d8800015 	stw	r2,0(sp)
 2000380:	00808074 	movhi	r2,513
 2000384:	10bc6004 	addi	r2,r2,-3712
 2000388:	d8800115 	stw	r2,4(sp)
 200038c:	008006c4 	movi	r2,27
 2000390:	d8800215 	stw	r2,8(sp)
 2000394:	00808074 	movhi	r2,513
 2000398:	10bc6104 	addi	r2,r2,-3708
 200039c:	d8800315 	stw	r2,12(sp)
 20003a0:	e13fff17 	ldw	r4,-4(fp)
 20003a4:	01408074 	movhi	r5,513
 20003a8:	297c6d04 	addi	r5,r5,-3660
 20003ac:	018006c4 	movi	r6,27
 20003b0:	01c08074 	movhi	r7,513
 20003b4:	39fc5e04 	addi	r7,r7,-3720
 20003b8:	2001c0c0 	call	2001c0c <fprintf>
              ESC, ESC_CLEAR, ESC, ESC_COL1_INDENT5);
    LCD_PRINTF(lcd, "%c%s SW0-Junior SW1-Senior \n", ESC, ESC_COL2_INDENT5);
 20003bc:	e13fff17 	ldw	r4,-4(fp)
 20003c0:	01408074 	movhi	r5,513
 20003c4:	297c7504 	addi	r5,r5,-3628
 20003c8:	018006c4 	movi	r6,27
 20003cc:	01c08074 	movhi	r7,513
 20003d0:	39fc6b04 	addi	r7,r7,-3668
 20003d4:	2001c0c0 	call	2001c0c <fprintf>
    LCD_PRINTF(lcd, "%c%s SW2-Super \n", ESC, ESC_COL2_INDENT5);
 20003d8:	e13fff17 	ldw	r4,-4(fp)
 20003dc:	01408074 	movhi	r5,513
 20003e0:	297c7d04 	addi	r5,r5,-3596
 20003e4:	018006c4 	movi	r6,27
 20003e8:	01c08074 	movhi	r7,513
 20003ec:	39fc6b04 	addi	r7,r7,-3668
 20003f0:	2001c0c0 	call	2001c0c <fprintf>

    // Wait for level selection
    while(1)
    {
        alt_u8 buttons = IORD_ALTERA_AVALON_PIO_DATA(BUTTON_PIO_BASE) & 0x7;
 20003f4:	00801804 	movi	r2,96
 20003f8:	10800037 	ldwio	r2,0(r2)
 20003fc:	108001cc 	andi	r2,r2,7
 2000400:	e0bffe05 	stb	r2,-8(fp)
        if(buttons & 0x4) {
 2000404:	e0bffe03 	ldbu	r2,-8(fp)
 2000408:	1080010c 	andi	r2,r2,4
 200040c:	1005003a 	cmpeq	r2,r2,zero
 2000410:	1000061e 	bne	r2,zero,200042c <show_level_selection+0xc8>
        	game_level = JUNIOR;
 2000414:	d026f315 	stw	zero,-25652(gp)
        	printf("Level: %d \n", game_level);
 2000418:	d166f317 	ldw	r5,-25652(gp)
 200041c:	01008074 	movhi	r4,513
 2000420:	213c8204 	addi	r4,r4,-3576
 2000424:	2002a8c0 	call	2002a8c <printf>
        	break;
 2000428:	00001a06 	br	2000494 <show_level_selection+0x130>
        }
        if(buttons & 0x2) {
 200042c:	e0bffe03 	ldbu	r2,-8(fp)
 2000430:	1080008c 	andi	r2,r2,2
 2000434:	1005003a 	cmpeq	r2,r2,zero
 2000438:	1000071e 	bne	r2,zero,2000458 <show_level_selection+0xf4>
        	game_level = SENIOR;
 200043c:	00800044 	movi	r2,1
 2000440:	d0a6f315 	stw	r2,-25652(gp)
        	printf("Level: %d \n", game_level);
 2000444:	d166f317 	ldw	r5,-25652(gp)
 2000448:	01008074 	movhi	r4,513
 200044c:	213c8204 	addi	r4,r4,-3576
 2000450:	2002a8c0 	call	2002a8c <printf>
        	break; }
 2000454:	00000f06 	br	2000494 <show_level_selection+0x130>
        if(buttons & 0x1) {
 2000458:	e0bffe03 	ldbu	r2,-8(fp)
 200045c:	1080004c 	andi	r2,r2,1
 2000460:	10803fcc 	andi	r2,r2,255
 2000464:	1005003a 	cmpeq	r2,r2,zero
 2000468:	1000071e 	bne	r2,zero,2000488 <show_level_selection+0x124>
        	game_level = SUPER;
 200046c:	00800084 	movi	r2,2
 2000470:	d0a6f315 	stw	r2,-25652(gp)
        	printf("Level: %d \n", game_level);
 2000474:	d166f317 	ldw	r5,-25652(gp)
 2000478:	01008074 	movhi	r4,513
 200047c:	213c8204 	addi	r4,r4,-3576
 2000480:	2002a8c0 	call	2002a8c <printf>
        	break; }
 2000484:	00000306 	br	2000494 <show_level_selection+0x130>

        usleep(10000);
 2000488:	0109c404 	movi	r4,10000
 200048c:	200c3580 	call	200c358 <usleep>
    }
 2000490:	003fd806 	br	20003f4 <show_level_selection+0x90>
}
 2000494:	e037883a 	mov	sp,fp
 2000498:	dfc00117 	ldw	ra,4(sp)
 200049c:	df000017 	ldw	fp,0(sp)
 20004a0:	dec00204 	addi	sp,sp,8
 20004a4:	f800283a 	ret

020004a8 <start_game>:

void start_game(FILE *lcd)
{
 20004a8:	defff204 	addi	sp,sp,-56
 20004ac:	dfc00d15 	stw	ra,52(sp)
 20004b0:	df000c15 	stw	fp,48(sp)
 20004b4:	dc400b15 	stw	r17,44(sp)
 20004b8:	dc000a15 	stw	r16,40(sp)
 20004bc:	df000a04 	addi	fp,sp,40
 20004c0:	e13fff15 	stw	r4,-4(fp)
    score = 0;
 20004c4:	d026f415 	stw	zero,-25648(gp)
    attempts = 0;
 20004c8:	d026f515 	stw	zero,-25644(gp)
    int game_time = 0; // 30 seconds for the game
 20004cc:	e03ffe15 	stw	zero,-8(fp)
    if (game_level == JUNIOR){
 20004d0:	d0a6f317 	ldw	r2,-25652(gp)
 20004d4:	1004c03a 	cmpne	r2,r2,zero
 20004d8:	1000031e 	bne	r2,zero,20004e8 <start_game+0x40>
    	game_time = 30;
 20004dc:	00800784 	movi	r2,30
 20004e0:	e0bffe15 	stw	r2,-8(fp)
 20004e4:	00000806 	br	2000508 <start_game+0x60>
    }
    else if (game_time == SENIOR){
 20004e8:	e0bffe17 	ldw	r2,-8(fp)
 20004ec:	10800058 	cmpnei	r2,r2,1
 20004f0:	1000031e 	bne	r2,zero,2000500 <start_game+0x58>
    	game_time = 20;
 20004f4:	00800504 	movi	r2,20
 20004f8:	e0bffe15 	stw	r2,-8(fp)
 20004fc:	00000206 	br	2000508 <start_game+0x60>
    }
    else {
    	game_time = 10;
 2000500:	00800284 	movi	r2,10
 2000504:	e0bffe15 	stw	r2,-8(fp)
    }


    LCD_PRINTF(lcd, "%c%s %c%s %c%s Game started!\n", ESC, ESC_TOP_LEFT,
 2000508:	008006c4 	movi	r2,27
 200050c:	d8800015 	stw	r2,0(sp)
 2000510:	00808074 	movhi	r2,513
 2000514:	10bc6004 	addi	r2,r2,-3712
 2000518:	d8800115 	stw	r2,4(sp)
 200051c:	008006c4 	movi	r2,27
 2000520:	d8800215 	stw	r2,8(sp)
 2000524:	00808074 	movhi	r2,513
 2000528:	10bc6104 	addi	r2,r2,-3708
 200052c:	d8800315 	stw	r2,12(sp)
 2000530:	e13fff17 	ldw	r4,-4(fp)
 2000534:	01408074 	movhi	r5,513
 2000538:	297c8504 	addi	r5,r5,-3564
 200053c:	018006c4 	movi	r6,27
 2000540:	01c08074 	movhi	r7,513
 2000544:	39fc5e04 	addi	r7,r7,-3720
 2000548:	2001c0c0 	call	2001c0c <fprintf>
              ESC, ESC_CLEAR, ESC, ESC_COL1_INDENT5);

    time_t start_time = time(NULL);
 200054c:	0009883a 	mov	r4,zero
 2000550:	200305c0 	call	200305c <time>
 2000554:	e0bffd15 	stw	r2,-12(fp)


    while(difftime(time(NULL), start_time) < game_time)
 2000558:	00006506 	br	20006f0 <start_game+0x248>
    {
        current_position = get_random_position();
 200055c:	20008040 	call	2000804 <get_random_position>
 2000560:	d0a6f615 	stw	r2,-25640(gp)
        display_target(lcd, current_position);
 2000564:	d166f617 	ldw	r5,-25640(gp)
 2000568:	e13fff17 	ldw	r4,-4(fp)
 200056c:	20007540 	call	2000754 <display_target>

        // Wait for player input or timeout (1 second)
        time_t target_start = time(NULL);
 2000570:	0009883a 	mov	r4,zero
 2000574:	200305c0 	call	200305c <time>
 2000578:	e0bffc15 	stw	r2,-16(fp)
        int caught = 0;
 200057c:	e03ffb15 	stw	zero,-20(fp)

        while(difftime(time(NULL), target_start) < 1.0)
 2000580:	00004706 	br	20006a0 <start_game+0x1f8>
        {
            alt_u8 buttons = IORD_ALTERA_AVALON_PIO_DATA(BUTTON_PIO_BASE) & 0x7;
 2000584:	00801804 	movi	r2,96
 2000588:	10800037 	ldwio	r2,0(r2)
 200058c:	108001cc 	andi	r2,r2,7
 2000590:	e0bffa05 	stb	r2,-24(fp)

            if((buttons & 0x1) && current_position == 0) caught = 1; // SW0 for right
 2000594:	e0bffa03 	ldbu	r2,-24(fp)
 2000598:	1080004c 	andi	r2,r2,1
 200059c:	10803fcc 	andi	r2,r2,255
 20005a0:	1005003a 	cmpeq	r2,r2,zero
 20005a4:	1000051e 	bne	r2,zero,20005bc <start_game+0x114>
 20005a8:	d0a6f617 	ldw	r2,-25640(gp)
 20005ac:	1004c03a 	cmpne	r2,r2,zero
 20005b0:	1000021e 	bne	r2,zero,20005bc <start_game+0x114>
 20005b4:	00800044 	movi	r2,1
 20005b8:	e0bffb15 	stw	r2,-20(fp)
            if((buttons & 0x2) && current_position == 1) caught = 1; // SW1 for middle
 20005bc:	e0bffa03 	ldbu	r2,-24(fp)
 20005c0:	1080008c 	andi	r2,r2,2
 20005c4:	1005003a 	cmpeq	r2,r2,zero
 20005c8:	1000051e 	bne	r2,zero,20005e0 <start_game+0x138>
 20005cc:	d0a6f617 	ldw	r2,-25640(gp)
 20005d0:	10800058 	cmpnei	r2,r2,1
 20005d4:	1000021e 	bne	r2,zero,20005e0 <start_game+0x138>
 20005d8:	00800044 	movi	r2,1
 20005dc:	e0bffb15 	stw	r2,-20(fp)
            if((buttons & 0x4) && current_position == 2) caught = 1; // SW2 for left
 20005e0:	e0bffa03 	ldbu	r2,-24(fp)
 20005e4:	1080010c 	andi	r2,r2,4
 20005e8:	1005003a 	cmpeq	r2,r2,zero
 20005ec:	1000051e 	bne	r2,zero,2000604 <start_game+0x15c>
 20005f0:	d0a6f617 	ldw	r2,-25640(gp)
 20005f4:	10800098 	cmpnei	r2,r2,2
 20005f8:	1000021e 	bne	r2,zero,2000604 <start_game+0x15c>
 20005fc:	00800044 	movi	r2,1
 2000600:	e0bffb15 	stw	r2,-20(fp)

            if(caught)
 2000604:	e0bffb17 	ldw	r2,-20(fp)
 2000608:	1005003a 	cmpeq	r2,r2,zero
 200060c:	1000221e 	bne	r2,zero,2000698 <start_game+0x1f0>
            {
                LCD_PRINTF(lcd, "%c%s %c%s %c%s Correct!\n", ESC, ESC_TOP_LEFT,
 2000610:	008006c4 	movi	r2,27
 2000614:	d8800015 	stw	r2,0(sp)
 2000618:	00808074 	movhi	r2,513
 200061c:	10bc6004 	addi	r2,r2,-3712
 2000620:	d8800115 	stw	r2,4(sp)
 2000624:	008006c4 	movi	r2,27
 2000628:	d8800215 	stw	r2,8(sp)
 200062c:	00808074 	movhi	r2,513
 2000630:	10bc6104 	addi	r2,r2,-3708
 2000634:	d8800315 	stw	r2,12(sp)
 2000638:	e13fff17 	ldw	r4,-4(fp)
 200063c:	01408074 	movhi	r5,513
 2000640:	297c8d04 	addi	r5,r5,-3532
 2000644:	018006c4 	movi	r6,27
 2000648:	01c08074 	movhi	r7,513
 200064c:	39fc5e04 	addi	r7,r7,-3720
 2000650:	2001c0c0 	call	2001c0c <fprintf>
                          ESC, ESC_CLEAR, ESC, ESC_COL1_INDENT5);
                usleep(500000);
 2000654:	01000234 	movhi	r4,8
 2000658:	21284804 	addi	r4,r4,-24288
 200065c:	200c3580 	call	200c358 <usleep>
                score++;
 2000660:	d0a6f417 	ldw	r2,-25648(gp)
 2000664:	10800044 	addi	r2,r2,1
 2000668:	d0a6f415 	stw	r2,-25648(gp)
                attempts++;
 200066c:	d0a6f517 	ldw	r2,-25644(gp)
 2000670:	10800044 	addi	r2,r2,1
 2000674:	d0a6f515 	stw	r2,-25644(gp)
                printf("\nScore: %d", score);
 2000678:	d166f417 	ldw	r5,-25648(gp)
 200067c:	01008074 	movhi	r4,513
 2000680:	213c9404 	addi	r4,r4,-3504
 2000684:	2002a8c0 	call	2002a8c <printf>
                usleep(500000); // Show "Correct" for 0.5s
 2000688:	01000234 	movhi	r4,8
 200068c:	21284804 	addi	r4,r4,-24288
 2000690:	200c3580 	call	200c358 <usleep>
                break;
 2000694:	00001006 	br	20006d8 <start_game+0x230>
            }

            usleep(10000);
 2000698:	0109c404 	movi	r4,10000
 200069c:	200c3580 	call	200c358 <usleep>

        // Wait for player input or timeout (1 second)
        time_t target_start = time(NULL);
        int caught = 0;

        while(difftime(time(NULL), target_start) < 1.0)
 20006a0:	0009883a 	mov	r4,zero
 20006a4:	200305c0 	call	200305c <time>
 20006a8:	1009883a 	mov	r4,r2
 20006ac:	e17ffc17 	ldw	r5,-16(fp)
 20006b0:	2001ae00 	call	2001ae0 <difftime>
 20006b4:	100b883a 	mov	r5,r2
 20006b8:	180d883a 	mov	r6,r3
 20006bc:	2809883a 	mov	r4,r5
 20006c0:	300b883a 	mov	r5,r6
 20006c4:	000d883a 	mov	r6,zero
 20006c8:	01cffc34 	movhi	r7,16368
 20006cc:	2000f180 	call	2000f18 <__ltdf2>
 20006d0:	1004803a 	cmplt	r2,r2,zero
 20006d4:	103fab1e 	bne	r2,zero,2000584 <start_game+0xdc>
            }

            usleep(10000);
        }

        if(!caught)
 20006d8:	e0bffb17 	ldw	r2,-20(fp)
 20006dc:	1004c03a 	cmpne	r2,r2,zero
 20006e0:	1000031e 	bne	r2,zero,20006f0 <start_game+0x248>
        {
            attempts++;
 20006e4:	d0a6f517 	ldw	r2,-25644(gp)
 20006e8:	10800044 	addi	r2,r2,1
 20006ec:	d0a6f515 	stw	r2,-25644(gp)
              ESC, ESC_CLEAR, ESC, ESC_COL1_INDENT5);

    time_t start_time = time(NULL);


    while(difftime(time(NULL), start_time) < game_time)
 20006f0:	0009883a 	mov	r4,zero
 20006f4:	200305c0 	call	200305c <time>
 20006f8:	1009883a 	mov	r4,r2
 20006fc:	e17ffd17 	ldw	r5,-12(fp)
 2000700:	2001ae00 	call	2001ae0 <difftime>
 2000704:	1021883a 	mov	r16,r2
 2000708:	1823883a 	mov	r17,r3
 200070c:	e13ffe17 	ldw	r4,-8(fp)
 2000710:	2000fa00 	call	2000fa0 <__floatsidf>
 2000714:	100f883a 	mov	r7,r2
 2000718:	1811883a 	mov	r8,r3
 200071c:	8009883a 	mov	r4,r16
 2000720:	880b883a 	mov	r5,r17
 2000724:	380d883a 	mov	r6,r7
 2000728:	400f883a 	mov	r7,r8
 200072c:	2000f180 	call	2000f18 <__ltdf2>
 2000730:	1004803a 	cmplt	r2,r2,zero
 2000734:	103f891e 	bne	r2,zero,200055c <start_game+0xb4>
        if(!caught)
        {
            attempts++;
        }
    }
}
 2000738:	e037883a 	mov	sp,fp
 200073c:	dfc00317 	ldw	ra,12(sp)
 2000740:	df000217 	ldw	fp,8(sp)
 2000744:	dc400117 	ldw	r17,4(sp)
 2000748:	dc000017 	ldw	r16,0(sp)
 200074c:	dec00404 	addi	sp,sp,16
 2000750:	f800283a 	ret

02000754 <display_target>:

void display_target(FILE *lcd, int position)
{
 2000754:	defff404 	addi	sp,sp,-48
 2000758:	dfc00b15 	stw	ra,44(sp)
 200075c:	df000a15 	stw	fp,40(sp)
 2000760:	df000a04 	addi	fp,sp,40
 2000764:	e13ffe15 	stw	r4,-8(fp)
 2000768:	e17fff15 	stw	r5,-4(fp)
    const char *patterns[3] = {"____0", "__0__", "_0___"};
 200076c:	00808074 	movhi	r2,513
 2000770:	10bc9704 	addi	r2,r2,-3492
 2000774:	e0bffb15 	stw	r2,-20(fp)
 2000778:	00808074 	movhi	r2,513
 200077c:	10bc9904 	addi	r2,r2,-3484
 2000780:	e0bffc15 	stw	r2,-16(fp)
 2000784:	00808074 	movhi	r2,513
 2000788:	10bc9b04 	addi	r2,r2,-3476
 200078c:	e0bffd15 	stw	r2,-12(fp)
    LCD_PRINTF(lcd, "%c%s %c%s %c%s %s\n", ESC, ESC_TOP_LEFT,
 2000790:	e0bfff17 	ldw	r2,-4(fp)
 2000794:	1085883a 	add	r2,r2,r2
 2000798:	1085883a 	add	r2,r2,r2
 200079c:	e0fffb04 	addi	r3,fp,-20
 20007a0:	10c5883a 	add	r2,r2,r3
 20007a4:	10c00017 	ldw	r3,0(r2)
 20007a8:	008006c4 	movi	r2,27
 20007ac:	d8800015 	stw	r2,0(sp)
 20007b0:	00808074 	movhi	r2,513
 20007b4:	10bc6004 	addi	r2,r2,-3712
 20007b8:	d8800115 	stw	r2,4(sp)
 20007bc:	008006c4 	movi	r2,27
 20007c0:	d8800215 	stw	r2,8(sp)
 20007c4:	00808074 	movhi	r2,513
 20007c8:	10bc6104 	addi	r2,r2,-3708
 20007cc:	d8800315 	stw	r2,12(sp)
 20007d0:	d8c00415 	stw	r3,16(sp)
 20007d4:	e13ffe17 	ldw	r4,-8(fp)
 20007d8:	01408074 	movhi	r5,513
 20007dc:	297c9d04 	addi	r5,r5,-3468
 20007e0:	018006c4 	movi	r6,27
 20007e4:	01c08074 	movhi	r7,513
 20007e8:	39fc5e04 	addi	r7,r7,-3720
 20007ec:	2001c0c0 	call	2001c0c <fprintf>
              ESC, ESC_CLEAR, ESC, ESC_COL1_INDENT5, patterns[position]);
}
 20007f0:	e037883a 	mov	sp,fp
 20007f4:	dfc00117 	ldw	ra,4(sp)
 20007f8:	df000017 	ldw	fp,0(sp)
 20007fc:	dec00204 	addi	sp,sp,8
 2000800:	f800283a 	ret

02000804 <get_random_position>:

int get_random_position()
{
 2000804:	defffe04 	addi	sp,sp,-8
 2000808:	dfc00115 	stw	ra,4(sp)
 200080c:	df000015 	stw	fp,0(sp)
 2000810:	d839883a 	mov	fp,sp
    return rand() % 3; // Returns 0, 1, or 2
 2000814:	2002bd40 	call	2002bd4 <rand>
 2000818:	1009883a 	mov	r4,r2
 200081c:	014000c4 	movi	r5,3
 2000820:	20011740 	call	2001174 <__modsi3>
}
 2000824:	e037883a 	mov	sp,fp
 2000828:	dfc00117 	ldw	ra,4(sp)
 200082c:	df000017 	ldw	fp,0(sp)
 2000830:	dec00204 	addi	sp,sp,8
 2000834:	f800283a 	ret

02000838 <show_result>:

void show_result(FILE *lcd)
{
 2000838:	defff104 	addi	sp,sp,-60
 200083c:	dfc00e15 	stw	ra,56(sp)
 2000840:	df000d15 	stw	fp,52(sp)
 2000844:	dc000c15 	stw	r16,48(sp)
 2000848:	df000c04 	addi	fp,sp,48
 200084c:	e13ffe15 	stw	r4,-8(fp)
    float percentage = (attempts > 0) ? (float)score / attempts * 100 : 0;
 2000850:	d0a6f517 	ldw	r2,-25644(gp)
 2000854:	10800050 	cmplti	r2,r2,1
 2000858:	10000d1e 	bne	r2,zero,2000890 <show_result+0x58>
 200085c:	d126f417 	ldw	r4,-25648(gp)
 2000860:	2000e800 	call	2000e80 <__floatsisf>
 2000864:	1021883a 	mov	r16,r2
 2000868:	d126f517 	ldw	r4,-25644(gp)
 200086c:	2000e800 	call	2000e80 <__floatsisf>
 2000870:	8009883a 	mov	r4,r16
 2000874:	100b883a 	mov	r5,r2
 2000878:	2000c940 	call	2000c94 <__divsf3>
 200087c:	1009883a 	mov	r4,r2
 2000880:	0150b234 	movhi	r5,17096
 2000884:	2000ab40 	call	2000ab4 <__mulsf3>
 2000888:	e0bfff15 	stw	r2,-4(fp)
 200088c:	00000206 	br	2000898 <show_result+0x60>
 2000890:	0005883a 	mov	r2,zero
 2000894:	e0bfff15 	stw	r2,-4(fp)
 2000898:	e0ffff17 	ldw	r3,-4(fp)
 200089c:	e0fff915 	stw	r3,-28(fp)
    int rating;

    if(percentage < 25) rating = POOR;
 20008a0:	e13ff917 	ldw	r4,-28(fp)
 20008a4:	01507234 	movhi	r5,16840
 20008a8:	2000e080 	call	2000e08 <__ltsf2>
 20008ac:	1004803a 	cmplt	r2,r2,zero
 20008b0:	1000011e 	bne	r2,zero,20008b8 <show_result+0x80>
 20008b4:	00000206 	br	20008c0 <show_result+0x88>
 20008b8:	e03ff815 	stw	zero,-32(fp)
 20008bc:	00001406 	br	2000910 <show_result+0xd8>
    else if(percentage < 50) rating = FAIR;
 20008c0:	e13ff917 	ldw	r4,-28(fp)
 20008c4:	01509234 	movhi	r5,16968
 20008c8:	2000e080 	call	2000e08 <__ltsf2>
 20008cc:	1004803a 	cmplt	r2,r2,zero
 20008d0:	1000011e 	bne	r2,zero,20008d8 <show_result+0xa0>
 20008d4:	00000306 	br	20008e4 <show_result+0xac>
 20008d8:	00800044 	movi	r2,1
 20008dc:	e0bff815 	stw	r2,-32(fp)
 20008e0:	00000b06 	br	2000910 <show_result+0xd8>
    else if(percentage < 75) rating = GOOD;
 20008e4:	e13ff917 	ldw	r4,-28(fp)
 20008e8:	0150a5b4 	movhi	r5,17046
 20008ec:	2000e080 	call	2000e08 <__ltsf2>
 20008f0:	1004803a 	cmplt	r2,r2,zero
 20008f4:	1000011e 	bne	r2,zero,20008fc <show_result+0xc4>
 20008f8:	00000306 	br	2000908 <show_result+0xd0>
 20008fc:	00800084 	movi	r2,2
 2000900:	e0bff815 	stw	r2,-32(fp)
 2000904:	00000206 	br	2000910 <show_result+0xd8>
    else rating = PERFECT;
 2000908:	008000c4 	movi	r2,3
 200090c:	e0bff815 	stw	r2,-32(fp)

    const char *ratings[] = {"Poor", "Fair", "Good", "Perfect"};
 2000910:	00808074 	movhi	r2,513
 2000914:	10bca204 	addi	r2,r2,-3448
 2000918:	e0bffa15 	stw	r2,-24(fp)
 200091c:	00808074 	movhi	r2,513
 2000920:	10bca404 	addi	r2,r2,-3440
 2000924:	e0bffb15 	stw	r2,-20(fp)
 2000928:	00808074 	movhi	r2,513
 200092c:	10bca604 	addi	r2,r2,-3432
 2000930:	e0bffc15 	stw	r2,-16(fp)
 2000934:	00808074 	movhi	r2,513
 2000938:	10bca804 	addi	r2,r2,-3424
 200093c:	e0bffd15 	stw	r2,-12(fp)

    LCD_PRINTF(lcd, "%c%s %c%s %c%s Game Over!\n", ESC, ESC_TOP_LEFT,
 2000940:	008006c4 	movi	r2,27
 2000944:	d8800015 	stw	r2,0(sp)
 2000948:	00808074 	movhi	r2,513
 200094c:	10bc6004 	addi	r2,r2,-3712
 2000950:	d8800115 	stw	r2,4(sp)
 2000954:	008006c4 	movi	r2,27
 2000958:	d8800215 	stw	r2,8(sp)
 200095c:	00808074 	movhi	r2,513
 2000960:	10bc6104 	addi	r2,r2,-3708
 2000964:	d8800315 	stw	r2,12(sp)
 2000968:	e13ffe17 	ldw	r4,-8(fp)
 200096c:	01408074 	movhi	r5,513
 2000970:	297caa04 	addi	r5,r5,-3416
 2000974:	018006c4 	movi	r6,27
 2000978:	01c08074 	movhi	r7,513
 200097c:	39fc5e04 	addi	r7,r7,-3720
 2000980:	2001c0c0 	call	2001c0c <fprintf>
              ESC, ESC_CLEAR, ESC, ESC_COL1_INDENT5);
    LCD_PRINTF(lcd, "%c%s Score: %d/%d\n", ESC, ESC_COL2_INDENT5, score, attempts);
 2000984:	d0a6f417 	ldw	r2,-25648(gp)
 2000988:	d0e6f517 	ldw	r3,-25644(gp)
 200098c:	d8800015 	stw	r2,0(sp)
 2000990:	d8c00115 	stw	r3,4(sp)
 2000994:	e13ffe17 	ldw	r4,-8(fp)
 2000998:	01408074 	movhi	r5,513
 200099c:	297cb104 	addi	r5,r5,-3388
 20009a0:	018006c4 	movi	r6,27
 20009a4:	01c08074 	movhi	r7,513
 20009a8:	39fc6b04 	addi	r7,r7,-3668
 20009ac:	2001c0c0 	call	2001c0c <fprintf>
    LCD_PRINTF(lcd, "%c%s Rating: %s\n", ESC, ESC_COL2_INDENT5, ratings[rating]);
 20009b0:	e0bff817 	ldw	r2,-32(fp)
 20009b4:	1085883a 	add	r2,r2,r2
 20009b8:	1085883a 	add	r2,r2,r2
 20009bc:	e0fff804 	addi	r3,fp,-32
 20009c0:	10c5883a 	add	r2,r2,r3
 20009c4:	10800204 	addi	r2,r2,8
 20009c8:	10800017 	ldw	r2,0(r2)
 20009cc:	d8800015 	stw	r2,0(sp)
 20009d0:	e13ffe17 	ldw	r4,-8(fp)
 20009d4:	01408074 	movhi	r5,513
 20009d8:	297cb604 	addi	r5,r5,-3368
 20009dc:	018006c4 	movi	r6,27
 20009e0:	01c08074 	movhi	r7,513
 20009e4:	39fc6b04 	addi	r7,r7,-3668
 20009e8:	2001c0c0 	call	2001c0c <fprintf>
    printf("Score: %d\n", score);
 20009ec:	d166f417 	ldw	r5,-25648(gp)
 20009f0:	01008074 	movhi	r4,513
 20009f4:	213cbb04 	addi	r4,r4,-3348
 20009f8:	2002a8c0 	call	2002a8c <printf>
    printf("Attempt: %d\n", attempts);
 20009fc:	d166f517 	ldw	r5,-25644(gp)
 2000a00:	01008074 	movhi	r4,513
 2000a04:	213cbe04 	addi	r4,r4,-3336
 2000a08:	2002a8c0 	call	2002a8c <printf>
    printf("Rating: %s\n", ratings[rating]);
 2000a0c:	e0bff817 	ldw	r2,-32(fp)
 2000a10:	1085883a 	add	r2,r2,r2
 2000a14:	1085883a 	add	r2,r2,r2
 2000a18:	e0fff804 	addi	r3,fp,-32
 2000a1c:	10c5883a 	add	r2,r2,r3
 2000a20:	10800204 	addi	r2,r2,8
 2000a24:	11400017 	ldw	r5,0(r2)
 2000a28:	01008074 	movhi	r4,513
 2000a2c:	213cc204 	addi	r4,r4,-3320
 2000a30:	2002a8c0 	call	2002a8c <printf>
}
 2000a34:	e037883a 	mov	sp,fp
 2000a38:	dfc00217 	ldw	ra,8(sp)
 2000a3c:	df000117 	ldw	fp,4(sp)
 2000a40:	dc000017 	ldw	r16,0(sp)
 2000a44:	dec00304 	addi	sp,sp,12
 2000a48:	f800283a 	ret

02000a4c <delay_ms>:

void delay_ms(int time)
{
 2000a4c:	defffb04 	addi	sp,sp,-20
 2000a50:	df000415 	stw	fp,16(sp)
 2000a54:	df000404 	addi	fp,sp,16
 2000a58:	e13fff15 	stw	r4,-4(fp)

   int i, j, k;
   for(i=0; i<=time; i++)
 2000a5c:	e03ffe15 	stw	zero,-8(fp)
 2000a60:	00000d06 	br	2000a98 <delay_ms+0x4c>
       for(j=0; j<=2000; j++) k = 1;
 2000a64:	e03ffd15 	stw	zero,-12(fp)
 2000a68:	00000506 	br	2000a80 <delay_ms+0x34>
 2000a6c:	00800044 	movi	r2,1
 2000a70:	e0bffc15 	stw	r2,-16(fp)
 2000a74:	e0bffd17 	ldw	r2,-12(fp)
 2000a78:	10800044 	addi	r2,r2,1
 2000a7c:	e0bffd15 	stw	r2,-12(fp)
 2000a80:	e0bffd17 	ldw	r2,-12(fp)
 2000a84:	1081f450 	cmplti	r2,r2,2001
 2000a88:	103ff81e 	bne	r2,zero,2000a6c <delay_ms+0x20>

void delay_ms(int time)
{

   int i, j, k;
   for(i=0; i<=time; i++)
 2000a8c:	e0bffe17 	ldw	r2,-8(fp)
 2000a90:	10800044 	addi	r2,r2,1
 2000a94:	e0bffe15 	stw	r2,-8(fp)
 2000a98:	e0fffe17 	ldw	r3,-8(fp)
 2000a9c:	e0bfff17 	ldw	r2,-4(fp)
 2000aa0:	10fff00e 	bge	r2,r3,2000a64 <delay_ms+0x18>
       for(j=0; j<=2000; j++) k = 1;
}
 2000aa4:	e037883a 	mov	sp,fp
 2000aa8:	df000017 	ldw	fp,0(sp)
 2000aac:	dec00104 	addi	sp,sp,4
 2000ab0:	f800283a 	ret

02000ab4 <__mulsf3>:
 2000ab4:	deffef04 	addi	sp,sp,-68
 2000ab8:	dc400f15 	stw	r17,60(sp)
 2000abc:	dc400204 	addi	r17,sp,8
 2000ac0:	dc000e15 	stw	r16,56(sp)
 2000ac4:	d9000015 	stw	r4,0(sp)
 2000ac8:	d9400115 	stw	r5,4(sp)
 2000acc:	d809883a 	mov	r4,sp
 2000ad0:	880b883a 	mov	r5,r17
 2000ad4:	dc000604 	addi	r16,sp,24
 2000ad8:	dfc01015 	stw	ra,64(sp)
 2000adc:	200145c0 	call	200145c <__unpack_f>
 2000ae0:	d9000104 	addi	r4,sp,4
 2000ae4:	800b883a 	mov	r5,r16
 2000ae8:	200145c0 	call	200145c <__unpack_f>
 2000aec:	d9000217 	ldw	r4,8(sp)
 2000af0:	00800044 	movi	r2,1
 2000af4:	01400104 	movi	r5,4
 2000af8:	1100142e 	bgeu	r2,r4,2000b4c <__mulsf3+0x98>
 2000afc:	d8c00617 	ldw	r3,24(sp)
 2000b00:	10c0052e 	bgeu	r2,r3,2000b18 <__mulsf3+0x64>
 2000b04:	21400f26 	beq	r4,r5,2000b44 <__mulsf3+0x90>
 2000b08:	19405d26 	beq	r3,r5,2000c80 <__mulsf3+0x1cc>
 2000b0c:	00800084 	movi	r2,2
 2000b10:	20800e26 	beq	r4,r2,2000b4c <__mulsf3+0x98>
 2000b14:	1880181e 	bne	r3,r2,2000b78 <__mulsf3+0xc4>
 2000b18:	d8c00717 	ldw	r3,28(sp)
 2000b1c:	d8800317 	ldw	r2,12(sp)
 2000b20:	8009883a 	mov	r4,r16
 2000b24:	10c4c03a 	cmpne	r2,r2,r3
 2000b28:	d8800715 	stw	r2,28(sp)
 2000b2c:	20012fc0 	call	20012fc <__pack_f>
 2000b30:	dfc01017 	ldw	ra,64(sp)
 2000b34:	dc400f17 	ldw	r17,60(sp)
 2000b38:	dc000e17 	ldw	r16,56(sp)
 2000b3c:	dec01104 	addi	sp,sp,68
 2000b40:	f800283a 	ret
 2000b44:	00800084 	movi	r2,2
 2000b48:	18804f26 	beq	r3,r2,2000c88 <__mulsf3+0x1d4>
 2000b4c:	d8800317 	ldw	r2,12(sp)
 2000b50:	d8c00717 	ldw	r3,28(sp)
 2000b54:	8809883a 	mov	r4,r17
 2000b58:	10c4c03a 	cmpne	r2,r2,r3
 2000b5c:	d8800315 	stw	r2,12(sp)
 2000b60:	20012fc0 	call	20012fc <__pack_f>
 2000b64:	dfc01017 	ldw	ra,64(sp)
 2000b68:	dc400f17 	ldw	r17,60(sp)
 2000b6c:	dc000e17 	ldw	r16,56(sp)
 2000b70:	dec01104 	addi	sp,sp,68
 2000b74:	f800283a 	ret
 2000b78:	d8800517 	ldw	r2,20(sp)
 2000b7c:	da000917 	ldw	r8,36(sp)
 2000b80:	0013883a 	mov	r9,zero
 2000b84:	0007883a 	mov	r3,zero
 2000b88:	480f883a 	mov	r7,r9
 2000b8c:	180b883a 	mov	r5,r3
 2000b90:	400d883a 	mov	r6,r8
 2000b94:	1009883a 	mov	r4,r2
 2000b98:	20011e40 	call	20011e4 <__muldi3>
 2000b9c:	da800417 	ldw	r10,16(sp)
 2000ba0:	d9800817 	ldw	r6,32(sp)
 2000ba4:	da400317 	ldw	r9,12(sp)
 2000ba8:	52800084 	addi	r10,r10,2
 2000bac:	3295883a 	add	r10,r6,r10
 2000bb0:	d9800717 	ldw	r6,28(sp)
 2000bb4:	180b883a 	mov	r5,r3
 2000bb8:	180f883a 	mov	r7,r3
 2000bbc:	4992c03a 	cmpne	r9,r9,r6
 2000bc0:	da400b15 	stw	r9,44(sp)
 2000bc4:	1007883a 	mov	r3,r2
 2000bc8:	da800c15 	stw	r10,48(sp)
 2000bcc:	2800070e 	bge	r5,zero,2000bec <__mulsf3+0x138>
 2000bd0:	2880004c 	andi	r2,r5,1
 2000bd4:	1005003a 	cmpeq	r2,r2,zero
 2000bd8:	500d883a 	mov	r6,r10
 2000bdc:	10001e26 	beq	r2,zero,2000c58 <__mulsf3+0x1a4>
 2000be0:	380ed07a 	srli	r7,r7,1
 2000be4:	31800044 	addi	r6,r6,1
 2000be8:	d9800c15 	stw	r6,48(sp)
 2000bec:	01100034 	movhi	r4,16384
 2000bf0:	213fffc4 	addi	r4,r4,-1
 2000bf4:	21c00b36 	bltu	r4,r7,2000c24 <__mulsf3+0x170>
 2000bf8:	d8800c17 	ldw	r2,48(sp)
 2000bfc:	00000206 	br	2000c08 <__mulsf3+0x154>
 2000c00:	18c7883a 	add	r3,r3,r3
 2000c04:	21c00636 	bltu	r4,r7,2000c20 <__mulsf3+0x16c>
 2000c08:	10bfffc4 	addi	r2,r2,-1
 2000c0c:	39cf883a 	add	r7,r7,r7
 2000c10:	183ffb0e 	bge	r3,zero,2000c00 <__mulsf3+0x14c>
 2000c14:	39c00054 	ori	r7,r7,1
 2000c18:	18c7883a 	add	r3,r3,r3
 2000c1c:	21fffa2e 	bgeu	r4,r7,2000c08 <__mulsf3+0x154>
 2000c20:	d8800c15 	stw	r2,48(sp)
 2000c24:	39001fcc 	andi	r4,r7,127
 2000c28:	00801004 	movi	r2,64
 2000c2c:	20800d26 	beq	r4,r2,2000c64 <__mulsf3+0x1b0>
 2000c30:	008000c4 	movi	r2,3
 2000c34:	d9000a04 	addi	r4,sp,40
 2000c38:	d9c00d15 	stw	r7,52(sp)
 2000c3c:	d8800a15 	stw	r2,40(sp)
 2000c40:	20012fc0 	call	20012fc <__pack_f>
 2000c44:	dfc01017 	ldw	ra,64(sp)
 2000c48:	dc400f17 	ldw	r17,60(sp)
 2000c4c:	dc000e17 	ldw	r16,56(sp)
 2000c50:	dec01104 	addi	sp,sp,68
 2000c54:	f800283a 	ret
 2000c58:	1804d07a 	srli	r2,r3,1
 2000c5c:	10e00034 	orhi	r3,r2,32768
 2000c60:	003fdf06 	br	2000be0 <__mulsf3+0x12c>
 2000c64:	3880200c 	andi	r2,r7,128
 2000c68:	103ff11e 	bne	r2,zero,2000c30 <__mulsf3+0x17c>
 2000c6c:	183ff026 	beq	r3,zero,2000c30 <__mulsf3+0x17c>
 2000c70:	3907883a 	add	r3,r7,r4
 2000c74:	00bfe004 	movi	r2,-128
 2000c78:	188e703a 	and	r7,r3,r2
 2000c7c:	003fec06 	br	2000c30 <__mulsf3+0x17c>
 2000c80:	00800084 	movi	r2,2
 2000c84:	20bfa41e 	bne	r4,r2,2000b18 <__mulsf3+0x64>
 2000c88:	01008074 	movhi	r4,513
 2000c8c:	213cc504 	addi	r4,r4,-3308
 2000c90:	003fb306 	br	2000b60 <__mulsf3+0xac>

02000c94 <__divsf3>:
 2000c94:	defff304 	addi	sp,sp,-52
 2000c98:	dc400b15 	stw	r17,44(sp)
 2000c9c:	dc400204 	addi	r17,sp,8
 2000ca0:	dc000a15 	stw	r16,40(sp)
 2000ca4:	d9000015 	stw	r4,0(sp)
 2000ca8:	d9400115 	stw	r5,4(sp)
 2000cac:	d809883a 	mov	r4,sp
 2000cb0:	880b883a 	mov	r5,r17
 2000cb4:	dc000604 	addi	r16,sp,24
 2000cb8:	dfc00c15 	stw	ra,48(sp)
 2000cbc:	200145c0 	call	200145c <__unpack_f>
 2000cc0:	d9000104 	addi	r4,sp,4
 2000cc4:	800b883a 	mov	r5,r16
 2000cc8:	200145c0 	call	200145c <__unpack_f>
 2000ccc:	d9000217 	ldw	r4,8(sp)
 2000cd0:	00800044 	movi	r2,1
 2000cd4:	01800104 	movi	r6,4
 2000cd8:	11000a2e 	bgeu	r2,r4,2000d04 <__divsf3+0x70>
 2000cdc:	d9400617 	ldw	r5,24(sp)
 2000ce0:	1140432e 	bgeu	r2,r5,2000df0 <__divsf3+0x15c>
 2000ce4:	d8800317 	ldw	r2,12(sp)
 2000ce8:	d8c00717 	ldw	r3,28(sp)
 2000cec:	10c4f03a 	xor	r2,r2,r3
 2000cf0:	d8800315 	stw	r2,12(sp)
 2000cf4:	21800226 	beq	r4,r6,2000d00 <__divsf3+0x6c>
 2000cf8:	00800084 	movi	r2,2
 2000cfc:	2080101e 	bne	r4,r2,2000d40 <__divsf3+0xac>
 2000d00:	29000726 	beq	r5,r4,2000d20 <__divsf3+0x8c>
 2000d04:	8809883a 	mov	r4,r17
 2000d08:	20012fc0 	call	20012fc <__pack_f>
 2000d0c:	dfc00c17 	ldw	ra,48(sp)
 2000d10:	dc400b17 	ldw	r17,44(sp)
 2000d14:	dc000a17 	ldw	r16,40(sp)
 2000d18:	dec00d04 	addi	sp,sp,52
 2000d1c:	f800283a 	ret
 2000d20:	01008074 	movhi	r4,513
 2000d24:	213cc504 	addi	r4,r4,-3308
 2000d28:	20012fc0 	call	20012fc <__pack_f>
 2000d2c:	dfc00c17 	ldw	ra,48(sp)
 2000d30:	dc400b17 	ldw	r17,44(sp)
 2000d34:	dc000a17 	ldw	r16,40(sp)
 2000d38:	dec00d04 	addi	sp,sp,52
 2000d3c:	f800283a 	ret
 2000d40:	29802d26 	beq	r5,r6,2000df8 <__divsf3+0x164>
 2000d44:	28801a26 	beq	r5,r2,2000db0 <__divsf3+0x11c>
 2000d48:	d8c00417 	ldw	r3,16(sp)
 2000d4c:	d8800817 	ldw	r2,32(sp)
 2000d50:	d9000517 	ldw	r4,20(sp)
 2000d54:	d9800917 	ldw	r6,36(sp)
 2000d58:	1885c83a 	sub	r2,r3,r2
 2000d5c:	d8800415 	stw	r2,16(sp)
 2000d60:	2180032e 	bgeu	r4,r6,2000d70 <__divsf3+0xdc>
 2000d64:	10bfffc4 	addi	r2,r2,-1
 2000d68:	d8800415 	stw	r2,16(sp)
 2000d6c:	2109883a 	add	r4,r4,r4
 2000d70:	01500034 	movhi	r5,16384
 2000d74:	0007883a 	mov	r3,zero
 2000d78:	0005883a 	mov	r2,zero
 2000d7c:	01c007c4 	movi	r7,31
 2000d80:	10800044 	addi	r2,r2,1
 2000d84:	21800236 	bltu	r4,r6,2000d90 <__divsf3+0xfc>
 2000d88:	1946b03a 	or	r3,r3,r5
 2000d8c:	2189c83a 	sub	r4,r4,r6
 2000d90:	280ad07a 	srli	r5,r5,1
 2000d94:	2109883a 	add	r4,r4,r4
 2000d98:	11fff91e 	bne	r2,r7,2000d80 <__divsf3+0xec>
 2000d9c:	19401fcc 	andi	r5,r3,127
 2000da0:	00801004 	movi	r2,64
 2000da4:	28800a26 	beq	r5,r2,2000dd0 <__divsf3+0x13c>
 2000da8:	d8c00515 	stw	r3,20(sp)
 2000dac:	003fd506 	br	2000d04 <__divsf3+0x70>
 2000db0:	8809883a 	mov	r4,r17
 2000db4:	d9800215 	stw	r6,8(sp)
 2000db8:	20012fc0 	call	20012fc <__pack_f>
 2000dbc:	dfc00c17 	ldw	ra,48(sp)
 2000dc0:	dc400b17 	ldw	r17,44(sp)
 2000dc4:	dc000a17 	ldw	r16,40(sp)
 2000dc8:	dec00d04 	addi	sp,sp,52
 2000dcc:	f800283a 	ret
 2000dd0:	1880200c 	andi	r2,r3,128
 2000dd4:	103ff41e 	bne	r2,zero,2000da8 <__divsf3+0x114>
 2000dd8:	203ff326 	beq	r4,zero,2000da8 <__divsf3+0x114>
 2000ddc:	1947883a 	add	r3,r3,r5
 2000de0:	00bfe004 	movi	r2,-128
 2000de4:	1886703a 	and	r3,r3,r2
 2000de8:	d8c00515 	stw	r3,20(sp)
 2000dec:	003fc506 	br	2000d04 <__divsf3+0x70>
 2000df0:	8009883a 	mov	r4,r16
 2000df4:	003fc406 	br	2000d08 <__divsf3+0x74>
 2000df8:	8809883a 	mov	r4,r17
 2000dfc:	d8000515 	stw	zero,20(sp)
 2000e00:	d8000415 	stw	zero,16(sp)
 2000e04:	003fc006 	br	2000d08 <__divsf3+0x74>

02000e08 <__ltsf2>:
 2000e08:	defff304 	addi	sp,sp,-52
 2000e0c:	dc400b15 	stw	r17,44(sp)
 2000e10:	dc400204 	addi	r17,sp,8
 2000e14:	dc000a15 	stw	r16,40(sp)
 2000e18:	d9000015 	stw	r4,0(sp)
 2000e1c:	d9400115 	stw	r5,4(sp)
 2000e20:	d809883a 	mov	r4,sp
 2000e24:	880b883a 	mov	r5,r17
 2000e28:	dc000604 	addi	r16,sp,24
 2000e2c:	dfc00c15 	stw	ra,48(sp)
 2000e30:	200145c0 	call	200145c <__unpack_f>
 2000e34:	d9000104 	addi	r4,sp,4
 2000e38:	800b883a 	mov	r5,r16
 2000e3c:	200145c0 	call	200145c <__unpack_f>
 2000e40:	d8800217 	ldw	r2,8(sp)
 2000e44:	00c00044 	movi	r3,1
 2000e48:	180d883a 	mov	r6,r3
 2000e4c:	1880062e 	bgeu	r3,r2,2000e68 <__ltsf2+0x60>
 2000e50:	d8800617 	ldw	r2,24(sp)
 2000e54:	8809883a 	mov	r4,r17
 2000e58:	800b883a 	mov	r5,r16
 2000e5c:	1880022e 	bgeu	r3,r2,2000e68 <__ltsf2+0x60>
 2000e60:	20015240 	call	2001524 <__fpcmp_parts_f>
 2000e64:	100d883a 	mov	r6,r2
 2000e68:	3005883a 	mov	r2,r6
 2000e6c:	dfc00c17 	ldw	ra,48(sp)
 2000e70:	dc400b17 	ldw	r17,44(sp)
 2000e74:	dc000a17 	ldw	r16,40(sp)
 2000e78:	dec00d04 	addi	sp,sp,52
 2000e7c:	f800283a 	ret

02000e80 <__floatsisf>:
 2000e80:	2006d7fa 	srli	r3,r4,31
 2000e84:	defffa04 	addi	sp,sp,-24
 2000e88:	008000c4 	movi	r2,3
 2000e8c:	dfc00515 	stw	ra,20(sp)
 2000e90:	dc000415 	stw	r16,16(sp)
 2000e94:	d8800015 	stw	r2,0(sp)
 2000e98:	d8c00115 	stw	r3,4(sp)
 2000e9c:	2000081e 	bne	r4,zero,2000ec0 <__floatsisf+0x40>
 2000ea0:	00800084 	movi	r2,2
 2000ea4:	d8800015 	stw	r2,0(sp)
 2000ea8:	d809883a 	mov	r4,sp
 2000eac:	20012fc0 	call	20012fc <__pack_f>
 2000eb0:	dfc00517 	ldw	ra,20(sp)
 2000eb4:	dc000417 	ldw	r16,16(sp)
 2000eb8:	dec00604 	addi	sp,sp,24
 2000ebc:	f800283a 	ret
 2000ec0:	00800784 	movi	r2,30
 2000ec4:	1807003a 	cmpeq	r3,r3,zero
 2000ec8:	d8800215 	stw	r2,8(sp)
 2000ecc:	18000e1e 	bne	r3,zero,2000f08 <__floatsisf+0x88>
 2000ed0:	00a00034 	movhi	r2,32768
 2000ed4:	20800e26 	beq	r4,r2,2000f10 <__floatsisf+0x90>
 2000ed8:	0121c83a 	sub	r16,zero,r4
 2000edc:	8009883a 	mov	r4,r16
 2000ee0:	dc000315 	stw	r16,12(sp)
 2000ee4:	200127c0 	call	200127c <__clzsi2>
 2000ee8:	117fffc4 	addi	r5,r2,-1
 2000eec:	017fee0e 	bge	zero,r5,2000ea8 <__floatsisf+0x28>
 2000ef0:	d8800217 	ldw	r2,8(sp)
 2000ef4:	8146983a 	sll	r3,r16,r5
 2000ef8:	1145c83a 	sub	r2,r2,r5
 2000efc:	d8c00315 	stw	r3,12(sp)
 2000f00:	d8800215 	stw	r2,8(sp)
 2000f04:	003fe806 	br	2000ea8 <__floatsisf+0x28>
 2000f08:	2021883a 	mov	r16,r4
 2000f0c:	003ff306 	br	2000edc <__floatsisf+0x5c>
 2000f10:	00b3c034 	movhi	r2,52992
 2000f14:	003fe606 	br	2000eb0 <__floatsisf+0x30>

02000f18 <__ltdf2>:
 2000f18:	deffef04 	addi	sp,sp,-68
 2000f1c:	dc400f15 	stw	r17,60(sp)
 2000f20:	dc400404 	addi	r17,sp,16
 2000f24:	2005883a 	mov	r2,r4
 2000f28:	2807883a 	mov	r3,r5
 2000f2c:	dc000e15 	stw	r16,56(sp)
 2000f30:	d809883a 	mov	r4,sp
 2000f34:	880b883a 	mov	r5,r17
 2000f38:	dc000904 	addi	r16,sp,36
 2000f3c:	d8c00115 	stw	r3,4(sp)
 2000f40:	d8800015 	stw	r2,0(sp)
 2000f44:	d9800215 	stw	r6,8(sp)
 2000f48:	dfc01015 	stw	ra,64(sp)
 2000f4c:	d9c00315 	stw	r7,12(sp)
 2000f50:	20018e00 	call	20018e0 <__unpack_d>
 2000f54:	d9000204 	addi	r4,sp,8
 2000f58:	800b883a 	mov	r5,r16
 2000f5c:	20018e00 	call	20018e0 <__unpack_d>
 2000f60:	d8800417 	ldw	r2,16(sp)
 2000f64:	00c00044 	movi	r3,1
 2000f68:	180d883a 	mov	r6,r3
 2000f6c:	1880062e 	bgeu	r3,r2,2000f88 <__ltdf2+0x70>
 2000f70:	d8800917 	ldw	r2,36(sp)
 2000f74:	8809883a 	mov	r4,r17
 2000f78:	800b883a 	mov	r5,r16
 2000f7c:	1880022e 	bgeu	r3,r2,2000f88 <__ltdf2+0x70>
 2000f80:	2001a180 	call	2001a18 <__fpcmp_parts_d>
 2000f84:	100d883a 	mov	r6,r2
 2000f88:	3005883a 	mov	r2,r6
 2000f8c:	dfc01017 	ldw	ra,64(sp)
 2000f90:	dc400f17 	ldw	r17,60(sp)
 2000f94:	dc000e17 	ldw	r16,56(sp)
 2000f98:	dec01104 	addi	sp,sp,68
 2000f9c:	f800283a 	ret

02000fa0 <__floatsidf>:
 2000fa0:	2006d7fa 	srli	r3,r4,31
 2000fa4:	defff604 	addi	sp,sp,-40
 2000fa8:	008000c4 	movi	r2,3
 2000fac:	dfc00915 	stw	ra,36(sp)
 2000fb0:	dcc00815 	stw	r19,32(sp)
 2000fb4:	dc800715 	stw	r18,28(sp)
 2000fb8:	dc400615 	stw	r17,24(sp)
 2000fbc:	dc000515 	stw	r16,20(sp)
 2000fc0:	d8800015 	stw	r2,0(sp)
 2000fc4:	d8c00115 	stw	r3,4(sp)
 2000fc8:	20000f1e 	bne	r4,zero,2001008 <__floatsidf+0x68>
 2000fcc:	00800084 	movi	r2,2
 2000fd0:	d8800015 	stw	r2,0(sp)
 2000fd4:	d809883a 	mov	r4,sp
 2000fd8:	20015cc0 	call	20015cc <__pack_d>
 2000fdc:	1009883a 	mov	r4,r2
 2000fe0:	180b883a 	mov	r5,r3
 2000fe4:	2005883a 	mov	r2,r4
 2000fe8:	2807883a 	mov	r3,r5
 2000fec:	dfc00917 	ldw	ra,36(sp)
 2000ff0:	dcc00817 	ldw	r19,32(sp)
 2000ff4:	dc800717 	ldw	r18,28(sp)
 2000ff8:	dc400617 	ldw	r17,24(sp)
 2000ffc:	dc000517 	ldw	r16,20(sp)
 2001000:	dec00a04 	addi	sp,sp,40
 2001004:	f800283a 	ret
 2001008:	00800f04 	movi	r2,60
 200100c:	1807003a 	cmpeq	r3,r3,zero
 2001010:	d8800215 	stw	r2,8(sp)
 2001014:	18001126 	beq	r3,zero,200105c <__floatsidf+0xbc>
 2001018:	0027883a 	mov	r19,zero
 200101c:	2025883a 	mov	r18,r4
 2001020:	d9000315 	stw	r4,12(sp)
 2001024:	dcc00415 	stw	r19,16(sp)
 2001028:	200127c0 	call	200127c <__clzsi2>
 200102c:	11000744 	addi	r4,r2,29
 2001030:	013fe80e 	bge	zero,r4,2000fd4 <__floatsidf+0x34>
 2001034:	10bfff44 	addi	r2,r2,-3
 2001038:	10000c16 	blt	r2,zero,200106c <__floatsidf+0xcc>
 200103c:	90a2983a 	sll	r17,r18,r2
 2001040:	0021883a 	mov	r16,zero
 2001044:	d8800217 	ldw	r2,8(sp)
 2001048:	dc400415 	stw	r17,16(sp)
 200104c:	dc000315 	stw	r16,12(sp)
 2001050:	1105c83a 	sub	r2,r2,r4
 2001054:	d8800215 	stw	r2,8(sp)
 2001058:	003fde06 	br	2000fd4 <__floatsidf+0x34>
 200105c:	00a00034 	movhi	r2,32768
 2001060:	20800a26 	beq	r4,r2,200108c <__floatsidf+0xec>
 2001064:	0109c83a 	sub	r4,zero,r4
 2001068:	003feb06 	br	2001018 <__floatsidf+0x78>
 200106c:	9006d07a 	srli	r3,r18,1
 2001070:	008007c4 	movi	r2,31
 2001074:	1105c83a 	sub	r2,r2,r4
 2001078:	1886d83a 	srl	r3,r3,r2
 200107c:	9922983a 	sll	r17,r19,r4
 2001080:	9120983a 	sll	r16,r18,r4
 2001084:	1c62b03a 	or	r17,r3,r17
 2001088:	003fee06 	br	2001044 <__floatsidf+0xa4>
 200108c:	0009883a 	mov	r4,zero
 2001090:	01707834 	movhi	r5,49632
 2001094:	003fd306 	br	2000fe4 <__floatsidf+0x44>

02001098 <udivmodsi4>:
 2001098:	29001b2e 	bgeu	r5,r4,2001108 <udivmodsi4+0x70>
 200109c:	28001a16 	blt	r5,zero,2001108 <udivmodsi4+0x70>
 20010a0:	00800044 	movi	r2,1
 20010a4:	0007883a 	mov	r3,zero
 20010a8:	01c007c4 	movi	r7,31
 20010ac:	00000306 	br	20010bc <udivmodsi4+0x24>
 20010b0:	19c01326 	beq	r3,r7,2001100 <udivmodsi4+0x68>
 20010b4:	18c00044 	addi	r3,r3,1
 20010b8:	28000416 	blt	r5,zero,20010cc <udivmodsi4+0x34>
 20010bc:	294b883a 	add	r5,r5,r5
 20010c0:	1085883a 	add	r2,r2,r2
 20010c4:	293ffa36 	bltu	r5,r4,20010b0 <udivmodsi4+0x18>
 20010c8:	10000d26 	beq	r2,zero,2001100 <udivmodsi4+0x68>
 20010cc:	0007883a 	mov	r3,zero
 20010d0:	21400236 	bltu	r4,r5,20010dc <udivmodsi4+0x44>
 20010d4:	2149c83a 	sub	r4,r4,r5
 20010d8:	1886b03a 	or	r3,r3,r2
 20010dc:	1004d07a 	srli	r2,r2,1
 20010e0:	280ad07a 	srli	r5,r5,1
 20010e4:	103ffa1e 	bne	r2,zero,20010d0 <udivmodsi4+0x38>
 20010e8:	30000226 	beq	r6,zero,20010f4 <udivmodsi4+0x5c>
 20010ec:	2005883a 	mov	r2,r4
 20010f0:	f800283a 	ret
 20010f4:	1809883a 	mov	r4,r3
 20010f8:	2005883a 	mov	r2,r4
 20010fc:	f800283a 	ret
 2001100:	0007883a 	mov	r3,zero
 2001104:	003ff806 	br	20010e8 <udivmodsi4+0x50>
 2001108:	00800044 	movi	r2,1
 200110c:	0007883a 	mov	r3,zero
 2001110:	003fef06 	br	20010d0 <udivmodsi4+0x38>

02001114 <__divsi3>:
 2001114:	defffe04 	addi	sp,sp,-8
 2001118:	dc000015 	stw	r16,0(sp)
 200111c:	dfc00115 	stw	ra,4(sp)
 2001120:	0021883a 	mov	r16,zero
 2001124:	20000c16 	blt	r4,zero,2001158 <__divsi3+0x44>
 2001128:	000d883a 	mov	r6,zero
 200112c:	28000e16 	blt	r5,zero,2001168 <__divsi3+0x54>
 2001130:	20010980 	call	2001098 <udivmodsi4>
 2001134:	1007883a 	mov	r3,r2
 2001138:	8005003a 	cmpeq	r2,r16,zero
 200113c:	1000011e 	bne	r2,zero,2001144 <__divsi3+0x30>
 2001140:	00c7c83a 	sub	r3,zero,r3
 2001144:	1805883a 	mov	r2,r3
 2001148:	dfc00117 	ldw	ra,4(sp)
 200114c:	dc000017 	ldw	r16,0(sp)
 2001150:	dec00204 	addi	sp,sp,8
 2001154:	f800283a 	ret
 2001158:	0109c83a 	sub	r4,zero,r4
 200115c:	04000044 	movi	r16,1
 2001160:	000d883a 	mov	r6,zero
 2001164:	283ff20e 	bge	r5,zero,2001130 <__divsi3+0x1c>
 2001168:	014bc83a 	sub	r5,zero,r5
 200116c:	8021003a 	cmpeq	r16,r16,zero
 2001170:	003fef06 	br	2001130 <__divsi3+0x1c>

02001174 <__modsi3>:
 2001174:	deffff04 	addi	sp,sp,-4
 2001178:	dfc00015 	stw	ra,0(sp)
 200117c:	01800044 	movi	r6,1
 2001180:	2807883a 	mov	r3,r5
 2001184:	20000416 	blt	r4,zero,2001198 <__modsi3+0x24>
 2001188:	28000c16 	blt	r5,zero,20011bc <__modsi3+0x48>
 200118c:	dfc00017 	ldw	ra,0(sp)
 2001190:	dec00104 	addi	sp,sp,4
 2001194:	20010981 	jmpi	2001098 <udivmodsi4>
 2001198:	0109c83a 	sub	r4,zero,r4
 200119c:	28000b16 	blt	r5,zero,20011cc <__modsi3+0x58>
 20011a0:	180b883a 	mov	r5,r3
 20011a4:	01800044 	movi	r6,1
 20011a8:	20010980 	call	2001098 <udivmodsi4>
 20011ac:	0085c83a 	sub	r2,zero,r2
 20011b0:	dfc00017 	ldw	ra,0(sp)
 20011b4:	dec00104 	addi	sp,sp,4
 20011b8:	f800283a 	ret
 20011bc:	014bc83a 	sub	r5,zero,r5
 20011c0:	dfc00017 	ldw	ra,0(sp)
 20011c4:	dec00104 	addi	sp,sp,4
 20011c8:	20010981 	jmpi	2001098 <udivmodsi4>
 20011cc:	0147c83a 	sub	r3,zero,r5
 20011d0:	003ff306 	br	20011a0 <__modsi3+0x2c>

020011d4 <__udivsi3>:
 20011d4:	000d883a 	mov	r6,zero
 20011d8:	20010981 	jmpi	2001098 <udivmodsi4>

020011dc <__umodsi3>:
 20011dc:	01800044 	movi	r6,1
 20011e0:	20010981 	jmpi	2001098 <udivmodsi4>

020011e4 <__muldi3>:
 20011e4:	2011883a 	mov	r8,r4
 20011e8:	427fffcc 	andi	r9,r8,65535
 20011ec:	4018d43a 	srli	r12,r8,16
 20011f0:	32bfffcc 	andi	r10,r6,65535
 20011f4:	3016d43a 	srli	r11,r6,16
 20011f8:	4a85383a 	mul	r2,r9,r10
 20011fc:	6295383a 	mul	r10,r12,r10
 2001200:	4ad3383a 	mul	r9,r9,r11
 2001204:	113fffcc 	andi	r4,r2,65535
 2001208:	1004d43a 	srli	r2,r2,16
 200120c:	4a93883a 	add	r9,r9,r10
 2001210:	3807883a 	mov	r3,r7
 2001214:	1245883a 	add	r2,r2,r9
 2001218:	280f883a 	mov	r7,r5
 200121c:	180b883a 	mov	r5,r3
 2001220:	1006943a 	slli	r3,r2,16
 2001224:	defffd04 	addi	sp,sp,-12
 2001228:	dc800215 	stw	r18,8(sp)
 200122c:	1907883a 	add	r3,r3,r4
 2001230:	dc400115 	stw	r17,4(sp)
 2001234:	dc000015 	stw	r16,0(sp)
 2001238:	4165383a 	mul	r18,r8,r5
 200123c:	31e3383a 	mul	r17,r6,r7
 2001240:	1012d43a 	srli	r9,r2,16
 2001244:	62d9383a 	mul	r12,r12,r11
 2001248:	181f883a 	mov	r15,r3
 200124c:	1280022e 	bgeu	r2,r10,2001258 <__muldi3+0x74>
 2001250:	00800074 	movhi	r2,1
 2001254:	6099883a 	add	r12,r12,r2
 2001258:	624d883a 	add	r6,r12,r9
 200125c:	9187883a 	add	r3,r18,r6
 2001260:	88c7883a 	add	r3,r17,r3
 2001264:	7805883a 	mov	r2,r15
 2001268:	dc800217 	ldw	r18,8(sp)
 200126c:	dc400117 	ldw	r17,4(sp)
 2001270:	dc000017 	ldw	r16,0(sp)
 2001274:	dec00304 	addi	sp,sp,12
 2001278:	f800283a 	ret

0200127c <__clzsi2>:
 200127c:	00bfffd4 	movui	r2,65535
 2001280:	11000e36 	bltu	r2,r4,20012bc <__clzsi2+0x40>
 2001284:	00803fc4 	movi	r2,255
 2001288:	01400204 	movi	r5,8
 200128c:	0007883a 	mov	r3,zero
 2001290:	11001036 	bltu	r2,r4,20012d4 <__clzsi2+0x58>
 2001294:	000b883a 	mov	r5,zero
 2001298:	20c6d83a 	srl	r3,r4,r3
 200129c:	00808074 	movhi	r2,513
 20012a0:	10bcc904 	addi	r2,r2,-3292
 20012a4:	1887883a 	add	r3,r3,r2
 20012a8:	18800003 	ldbu	r2,0(r3)
 20012ac:	00c00804 	movi	r3,32
 20012b0:	2885883a 	add	r2,r5,r2
 20012b4:	1885c83a 	sub	r2,r3,r2
 20012b8:	f800283a 	ret
 20012bc:	01400404 	movi	r5,16
 20012c0:	00804034 	movhi	r2,256
 20012c4:	10bfffc4 	addi	r2,r2,-1
 20012c8:	2807883a 	mov	r3,r5
 20012cc:	113ff22e 	bgeu	r2,r4,2001298 <__clzsi2+0x1c>
 20012d0:	01400604 	movi	r5,24
 20012d4:	2807883a 	mov	r3,r5
 20012d8:	20c6d83a 	srl	r3,r4,r3
 20012dc:	00808074 	movhi	r2,513
 20012e0:	10bcc904 	addi	r2,r2,-3292
 20012e4:	1887883a 	add	r3,r3,r2
 20012e8:	18800003 	ldbu	r2,0(r3)
 20012ec:	00c00804 	movi	r3,32
 20012f0:	2885883a 	add	r2,r5,r2
 20012f4:	1885c83a 	sub	r2,r3,r2
 20012f8:	f800283a 	ret

020012fc <__pack_f>:
 20012fc:	20c00017 	ldw	r3,0(r4)
 2001300:	01c00044 	movi	r7,1
 2001304:	21800317 	ldw	r6,12(r4)
 2001308:	21400117 	ldw	r5,4(r4)
 200130c:	38c02d2e 	bgeu	r7,r3,20013c4 <__pack_f+0xc8>
 2001310:	00800104 	movi	r2,4
 2001314:	18802826 	beq	r3,r2,20013b8 <__pack_f+0xbc>
 2001318:	00800084 	movi	r2,2
 200131c:	18800126 	beq	r3,r2,2001324 <__pack_f+0x28>
 2001320:	3000101e 	bne	r6,zero,2001364 <__pack_f+0x68>
 2001324:	000d883a 	mov	r6,zero
 2001328:	0007883a 	mov	r3,zero
 200132c:	19003fcc 	andi	r4,r3,255
 2001330:	200895fa 	slli	r4,r4,23
 2001334:	00c02034 	movhi	r3,128
 2001338:	18ffffc4 	addi	r3,r3,-1
 200133c:	30c6703a 	and	r3,r6,r3
 2001340:	10a0002c 	andhi	r2,r2,32768
 2001344:	10c4b03a 	or	r2,r2,r3
 2001348:	280a97fa 	slli	r5,r5,31
 200134c:	1104b03a 	or	r2,r2,r4
 2001350:	00e00034 	movhi	r3,32768
 2001354:	18ffffc4 	addi	r3,r3,-1
 2001358:	10c4703a 	and	r2,r2,r3
 200135c:	1144b03a 	or	r2,r2,r5
 2001360:	f800283a 	ret
 2001364:	21000217 	ldw	r4,8(r4)
 2001368:	00bfe084 	movi	r2,-126
 200136c:	20801b16 	blt	r4,r2,20013dc <__pack_f+0xe0>
 2001370:	00801fc4 	movi	r2,127
 2001374:	11001016 	blt	r2,r4,20013b8 <__pack_f+0xbc>
 2001378:	308e703a 	and	r7,r6,r2
 200137c:	2087883a 	add	r3,r4,r2
 2001380:	00801004 	movi	r2,64
 2001384:	38800526 	beq	r7,r2,200139c <__pack_f+0xa0>
 2001388:	31800fc4 	addi	r6,r6,63
 200138c:	30000716 	blt	r6,zero,20013ac <__pack_f+0xb0>
 2001390:	300490ba 	slli	r2,r6,2
 2001394:	100cd27a 	srli	r6,r2,9
 2001398:	003fe406 	br	200132c <__pack_f+0x30>
 200139c:	3080200c 	andi	r2,r6,128
 20013a0:	103ffa26 	beq	r2,zero,200138c <__pack_f+0x90>
 20013a4:	31cd883a 	add	r6,r6,r7
 20013a8:	003ff806 	br	200138c <__pack_f+0x90>
 20013ac:	300cd07a 	srli	r6,r6,1
 20013b0:	18c00044 	addi	r3,r3,1
 20013b4:	003ff606 	br	2001390 <__pack_f+0x94>
 20013b8:	000d883a 	mov	r6,zero
 20013bc:	00ffffc4 	movi	r3,-1
 20013c0:	003fda06 	br	200132c <__pack_f+0x30>
 20013c4:	31800434 	orhi	r6,r6,16
 20013c8:	00802034 	movhi	r2,128
 20013cc:	10bfffc4 	addi	r2,r2,-1
 20013d0:	308c703a 	and	r6,r6,r2
 20013d4:	00ffffc4 	movi	r3,-1
 20013d8:	003fd406 	br	200132c <__pack_f+0x30>
 20013dc:	1109c83a 	sub	r4,r2,r4
 20013e0:	00800644 	movi	r2,25
 20013e4:	11001216 	blt	r2,r4,2001430 <__pack_f+0x134>
 20013e8:	3904983a 	sll	r2,r7,r4
 20013ec:	3106d83a 	srl	r3,r6,r4
 20013f0:	10bfffc4 	addi	r2,r2,-1
 20013f4:	3084703a 	and	r2,r6,r2
 20013f8:	1004c03a 	cmpne	r2,r2,zero
 20013fc:	1886b03a 	or	r3,r3,r2
 2001400:	19001fcc 	andi	r4,r3,127
 2001404:	00801004 	movi	r2,64
 2001408:	20800c26 	beq	r4,r2,200143c <__pack_f+0x140>
 200140c:	18c00fc4 	addi	r3,r3,63
 2001410:	00900034 	movhi	r2,16384
 2001414:	10bfffc4 	addi	r2,r2,-1
 2001418:	180cd1fa 	srli	r6,r3,7
 200141c:	10c7803a 	cmpltu	r3,r2,r3
 2001420:	00802034 	movhi	r2,128
 2001424:	10bfffc4 	addi	r2,r2,-1
 2001428:	308c703a 	and	r6,r6,r2
 200142c:	003fbf06 	br	200132c <__pack_f+0x30>
 2001430:	0007883a 	mov	r3,zero
 2001434:	000d883a 	mov	r6,zero
 2001438:	003ff906 	br	2001420 <__pack_f+0x124>
 200143c:	1880200c 	andi	r2,r3,128
 2001440:	10000126 	beq	r2,zero,2001448 <__pack_f+0x14c>
 2001444:	1907883a 	add	r3,r3,r4
 2001448:	180cd1fa 	srli	r6,r3,7
 200144c:	00900034 	movhi	r2,16384
 2001450:	10bfffc4 	addi	r2,r2,-1
 2001454:	10c7803a 	cmpltu	r3,r2,r3
 2001458:	003ff106 	br	2001420 <__pack_f+0x124>

0200145c <__unpack_f>:
 200145c:	21800017 	ldw	r6,0(r4)
 2001460:	00c02034 	movhi	r3,128
 2001464:	18ffffc4 	addi	r3,r3,-1
 2001468:	3004d5fa 	srli	r2,r6,23
 200146c:	3008d7fa 	srli	r4,r6,31
 2001470:	30ce703a 	and	r7,r6,r3
 2001474:	10c03fcc 	andi	r3,r2,255
 2001478:	29000115 	stw	r4,4(r5)
 200147c:	1800131e 	bne	r3,zero,20014cc <__unpack_f+0x70>
 2001480:	38000f26 	beq	r7,zero,20014c0 <__unpack_f+0x64>
 2001484:	380691fa 	slli	r3,r7,7
 2001488:	01bfe084 	movi	r6,-126
 200148c:	008000c4 	movi	r2,3
 2001490:	01100034 	movhi	r4,16384
 2001494:	213fffc4 	addi	r4,r4,-1
 2001498:	28800015 	stw	r2,0(r5)
 200149c:	29800215 	stw	r6,8(r5)
 20014a0:	20c00536 	bltu	r4,r3,20014b8 <__unpack_f+0x5c>
 20014a4:	3005883a 	mov	r2,r6
 20014a8:	18c7883a 	add	r3,r3,r3
 20014ac:	10bfffc4 	addi	r2,r2,-1
 20014b0:	20fffd2e 	bgeu	r4,r3,20014a8 <__unpack_f+0x4c>
 20014b4:	28800215 	stw	r2,8(r5)
 20014b8:	28c00315 	stw	r3,12(r5)
 20014bc:	f800283a 	ret
 20014c0:	00800084 	movi	r2,2
 20014c4:	28800015 	stw	r2,0(r5)
 20014c8:	f800283a 	ret
 20014cc:	00803fc4 	movi	r2,255
 20014d0:	18800826 	beq	r3,r2,20014f4 <__unpack_f+0x98>
 20014d4:	380491fa 	slli	r2,r7,7
 20014d8:	18ffe044 	addi	r3,r3,-127
 20014dc:	28c00215 	stw	r3,8(r5)
 20014e0:	10900034 	orhi	r2,r2,16384
 20014e4:	28800315 	stw	r2,12(r5)
 20014e8:	008000c4 	movi	r2,3
 20014ec:	28800015 	stw	r2,0(r5)
 20014f0:	f800283a 	ret
 20014f4:	3800031e 	bne	r7,zero,2001504 <__unpack_f+0xa8>
 20014f8:	00800104 	movi	r2,4
 20014fc:	28800015 	stw	r2,0(r5)
 2001500:	f800283a 	ret
 2001504:	3080042c 	andhi	r2,r6,16
 2001508:	10000426 	beq	r2,zero,200151c <__unpack_f+0xc0>
 200150c:	00800044 	movi	r2,1
 2001510:	28800015 	stw	r2,0(r5)
 2001514:	29c00315 	stw	r7,12(r5)
 2001518:	f800283a 	ret
 200151c:	28000015 	stw	zero,0(r5)
 2001520:	003ffc06 	br	2001514 <__unpack_f+0xb8>

02001524 <__fpcmp_parts_f>:
 2001524:	21800017 	ldw	r6,0(r4)
 2001528:	00c00044 	movi	r3,1
 200152c:	19800a2e 	bgeu	r3,r6,2001558 <__fpcmp_parts_f+0x34>
 2001530:	28800017 	ldw	r2,0(r5)
 2001534:	1880082e 	bgeu	r3,r2,2001558 <__fpcmp_parts_f+0x34>
 2001538:	00c00104 	movi	r3,4
 200153c:	30c01e26 	beq	r6,r3,20015b8 <__fpcmp_parts_f+0x94>
 2001540:	10c01a26 	beq	r2,r3,20015ac <__fpcmp_parts_f+0x88>
 2001544:	00c00084 	movi	r3,2
 2001548:	30c00526 	beq	r6,r3,2001560 <__fpcmp_parts_f+0x3c>
 200154c:	10c0071e 	bne	r2,r3,200156c <__fpcmp_parts_f+0x48>
 2001550:	20800117 	ldw	r2,4(r4)
 2001554:	1000091e 	bne	r2,zero,200157c <__fpcmp_parts_f+0x58>
 2001558:	00800044 	movi	r2,1
 200155c:	f800283a 	ret
 2001560:	10c0121e 	bne	r2,r3,20015ac <__fpcmp_parts_f+0x88>
 2001564:	0005883a 	mov	r2,zero
 2001568:	f800283a 	ret
 200156c:	20c00117 	ldw	r3,4(r4)
 2001570:	28800117 	ldw	r2,4(r5)
 2001574:	18800326 	beq	r3,r2,2001584 <__fpcmp_parts_f+0x60>
 2001578:	183ff726 	beq	r3,zero,2001558 <__fpcmp_parts_f+0x34>
 200157c:	00bfffc4 	movi	r2,-1
 2001580:	f800283a 	ret
 2001584:	21800217 	ldw	r6,8(r4)
 2001588:	28800217 	ldw	r2,8(r5)
 200158c:	11bffa16 	blt	r2,r6,2001578 <__fpcmp_parts_f+0x54>
 2001590:	30800416 	blt	r6,r2,20015a4 <__fpcmp_parts_f+0x80>
 2001594:	21000317 	ldw	r4,12(r4)
 2001598:	29400317 	ldw	r5,12(r5)
 200159c:	293ff636 	bltu	r5,r4,2001578 <__fpcmp_parts_f+0x54>
 20015a0:	217ff02e 	bgeu	r4,r5,2001564 <__fpcmp_parts_f+0x40>
 20015a4:	183fec1e 	bne	r3,zero,2001558 <__fpcmp_parts_f+0x34>
 20015a8:	003ff406 	br	200157c <__fpcmp_parts_f+0x58>
 20015ac:	28800117 	ldw	r2,4(r5)
 20015b0:	103fe91e 	bne	r2,zero,2001558 <__fpcmp_parts_f+0x34>
 20015b4:	003ff106 	br	200157c <__fpcmp_parts_f+0x58>
 20015b8:	11bfe51e 	bne	r2,r6,2001550 <__fpcmp_parts_f+0x2c>
 20015bc:	28c00117 	ldw	r3,4(r5)
 20015c0:	20800117 	ldw	r2,4(r4)
 20015c4:	1885c83a 	sub	r2,r3,r2
 20015c8:	f800283a 	ret

020015cc <__pack_d>:
 20015cc:	20c00017 	ldw	r3,0(r4)
 20015d0:	defffd04 	addi	sp,sp,-12
 20015d4:	dc000015 	stw	r16,0(sp)
 20015d8:	dc800215 	stw	r18,8(sp)
 20015dc:	dc400115 	stw	r17,4(sp)
 20015e0:	00800044 	movi	r2,1
 20015e4:	22000317 	ldw	r8,12(r4)
 20015e8:	001f883a 	mov	r15,zero
 20015ec:	22400417 	ldw	r9,16(r4)
 20015f0:	24000117 	ldw	r16,4(r4)
 20015f4:	10c0552e 	bgeu	r2,r3,200174c <__pack_d+0x180>
 20015f8:	00800104 	movi	r2,4
 20015fc:	18804f26 	beq	r3,r2,200173c <__pack_d+0x170>
 2001600:	00800084 	movi	r2,2
 2001604:	18800226 	beq	r3,r2,2001610 <__pack_d+0x44>
 2001608:	4244b03a 	or	r2,r8,r9
 200160c:	10001a1e 	bne	r2,zero,2001678 <__pack_d+0xac>
 2001610:	000d883a 	mov	r6,zero
 2001614:	000f883a 	mov	r7,zero
 2001618:	0011883a 	mov	r8,zero
 200161c:	00800434 	movhi	r2,16
 2001620:	10bfffc4 	addi	r2,r2,-1
 2001624:	301d883a 	mov	r14,r6
 2001628:	3884703a 	and	r2,r7,r2
 200162c:	400a953a 	slli	r5,r8,20
 2001630:	79bffc2c 	andhi	r6,r15,65520
 2001634:	308cb03a 	or	r6,r6,r2
 2001638:	00e00434 	movhi	r3,32784
 200163c:	18ffffc4 	addi	r3,r3,-1
 2001640:	800497fa 	slli	r2,r16,31
 2001644:	30c6703a 	and	r3,r6,r3
 2001648:	1946b03a 	or	r3,r3,r5
 200164c:	01600034 	movhi	r5,32768
 2001650:	297fffc4 	addi	r5,r5,-1
 2001654:	194a703a 	and	r5,r3,r5
 2001658:	288ab03a 	or	r5,r5,r2
 200165c:	2807883a 	mov	r3,r5
 2001660:	7005883a 	mov	r2,r14
 2001664:	dc800217 	ldw	r18,8(sp)
 2001668:	dc400117 	ldw	r17,4(sp)
 200166c:	dc000017 	ldw	r16,0(sp)
 2001670:	dec00304 	addi	sp,sp,12
 2001674:	f800283a 	ret
 2001678:	21000217 	ldw	r4,8(r4)
 200167c:	00bf0084 	movi	r2,-1022
 2001680:	20803f16 	blt	r4,r2,2001780 <__pack_d+0x1b4>
 2001684:	0080ffc4 	movi	r2,1023
 2001688:	11002c16 	blt	r2,r4,200173c <__pack_d+0x170>
 200168c:	00803fc4 	movi	r2,255
 2001690:	408c703a 	and	r6,r8,r2
 2001694:	00802004 	movi	r2,128
 2001698:	0007883a 	mov	r3,zero
 200169c:	000f883a 	mov	r7,zero
 20016a0:	2280ffc4 	addi	r10,r4,1023
 20016a4:	30801e26 	beq	r6,r2,2001720 <__pack_d+0x154>
 20016a8:	00801fc4 	movi	r2,127
 20016ac:	4089883a 	add	r4,r8,r2
 20016b0:	220d803a 	cmpltu	r6,r4,r8
 20016b4:	324d883a 	add	r6,r6,r9
 20016b8:	2011883a 	mov	r8,r4
 20016bc:	3013883a 	mov	r9,r6
 20016c0:	00880034 	movhi	r2,8192
 20016c4:	10bfffc4 	addi	r2,r2,-1
 20016c8:	12400d36 	bltu	r2,r9,2001700 <__pack_d+0x134>
 20016cc:	4804963a 	slli	r2,r9,24
 20016d0:	400cd23a 	srli	r6,r8,8
 20016d4:	480ed23a 	srli	r7,r9,8
 20016d8:	013fffc4 	movi	r4,-1
 20016dc:	118cb03a 	or	r6,r2,r6
 20016e0:	01400434 	movhi	r5,16
 20016e4:	297fffc4 	addi	r5,r5,-1
 20016e8:	3104703a 	and	r2,r6,r4
 20016ec:	3946703a 	and	r3,r7,r5
 20016f0:	5201ffcc 	andi	r8,r10,2047
 20016f4:	100d883a 	mov	r6,r2
 20016f8:	180f883a 	mov	r7,r3
 20016fc:	003fc706 	br	200161c <__pack_d+0x50>
 2001700:	480897fa 	slli	r4,r9,31
 2001704:	4004d07a 	srli	r2,r8,1
 2001708:	4806d07a 	srli	r3,r9,1
 200170c:	52800044 	addi	r10,r10,1
 2001710:	2084b03a 	or	r2,r4,r2
 2001714:	1011883a 	mov	r8,r2
 2001718:	1813883a 	mov	r9,r3
 200171c:	003feb06 	br	20016cc <__pack_d+0x100>
 2001720:	383fe11e 	bne	r7,zero,20016a8 <__pack_d+0xdc>
 2001724:	01004004 	movi	r4,256
 2001728:	4104703a 	and	r2,r8,r4
 200172c:	10c4b03a 	or	r2,r2,r3
 2001730:	103fe326 	beq	r2,zero,20016c0 <__pack_d+0xf4>
 2001734:	3005883a 	mov	r2,r6
 2001738:	003fdc06 	br	20016ac <__pack_d+0xe0>
 200173c:	000d883a 	mov	r6,zero
 2001740:	000f883a 	mov	r7,zero
 2001744:	0201ffc4 	movi	r8,2047
 2001748:	003fb406 	br	200161c <__pack_d+0x50>
 200174c:	0005883a 	mov	r2,zero
 2001750:	00c00234 	movhi	r3,8
 2001754:	408cb03a 	or	r6,r8,r2
 2001758:	48ceb03a 	or	r7,r9,r3
 200175c:	013fffc4 	movi	r4,-1
 2001760:	01400434 	movhi	r5,16
 2001764:	297fffc4 	addi	r5,r5,-1
 2001768:	3104703a 	and	r2,r6,r4
 200176c:	3946703a 	and	r3,r7,r5
 2001770:	100d883a 	mov	r6,r2
 2001774:	180f883a 	mov	r7,r3
 2001778:	0201ffc4 	movi	r8,2047
 200177c:	003fa706 	br	200161c <__pack_d+0x50>
 2001780:	1109c83a 	sub	r4,r2,r4
 2001784:	00800e04 	movi	r2,56
 2001788:	11004316 	blt	r2,r4,2001898 <__pack_d+0x2cc>
 200178c:	21fff804 	addi	r7,r4,-32
 2001790:	38004516 	blt	r7,zero,20018a8 <__pack_d+0x2dc>
 2001794:	49d8d83a 	srl	r12,r9,r7
 2001798:	001b883a 	mov	r13,zero
 200179c:	0023883a 	mov	r17,zero
 20017a0:	01400044 	movi	r5,1
 20017a4:	0025883a 	mov	r18,zero
 20017a8:	38004716 	blt	r7,zero,20018c8 <__pack_d+0x2fc>
 20017ac:	29d6983a 	sll	r11,r5,r7
 20017b0:	0015883a 	mov	r10,zero
 20017b4:	00bfffc4 	movi	r2,-1
 20017b8:	5089883a 	add	r4,r10,r2
 20017bc:	588b883a 	add	r5,r11,r2
 20017c0:	228d803a 	cmpltu	r6,r4,r10
 20017c4:	314b883a 	add	r5,r6,r5
 20017c8:	4104703a 	and	r2,r8,r4
 20017cc:	4946703a 	and	r3,r9,r5
 20017d0:	10c4b03a 	or	r2,r2,r3
 20017d4:	10000226 	beq	r2,zero,20017e0 <__pack_d+0x214>
 20017d8:	04400044 	movi	r17,1
 20017dc:	0025883a 	mov	r18,zero
 20017e0:	00803fc4 	movi	r2,255
 20017e4:	644eb03a 	or	r7,r12,r17
 20017e8:	3892703a 	and	r9,r7,r2
 20017ec:	00802004 	movi	r2,128
 20017f0:	6c90b03a 	or	r8,r13,r18
 20017f4:	0015883a 	mov	r10,zero
 20017f8:	48801626 	beq	r9,r2,2001854 <__pack_d+0x288>
 20017fc:	01001fc4 	movi	r4,127
 2001800:	3905883a 	add	r2,r7,r4
 2001804:	11cd803a 	cmpltu	r6,r2,r7
 2001808:	320d883a 	add	r6,r6,r8
 200180c:	100f883a 	mov	r7,r2
 2001810:	00840034 	movhi	r2,4096
 2001814:	10bfffc4 	addi	r2,r2,-1
 2001818:	3011883a 	mov	r8,r6
 200181c:	0007883a 	mov	r3,zero
 2001820:	11801b36 	bltu	r2,r6,2001890 <__pack_d+0x2c4>
 2001824:	4004963a 	slli	r2,r8,24
 2001828:	3808d23a 	srli	r4,r7,8
 200182c:	400ad23a 	srli	r5,r8,8
 2001830:	1813883a 	mov	r9,r3
 2001834:	1108b03a 	or	r4,r2,r4
 2001838:	00bfffc4 	movi	r2,-1
 200183c:	00c00434 	movhi	r3,16
 2001840:	18ffffc4 	addi	r3,r3,-1
 2001844:	208c703a 	and	r6,r4,r2
 2001848:	28ce703a 	and	r7,r5,r3
 200184c:	4a01ffcc 	andi	r8,r9,2047
 2001850:	003f7206 	br	200161c <__pack_d+0x50>
 2001854:	503fe91e 	bne	r10,zero,20017fc <__pack_d+0x230>
 2001858:	01004004 	movi	r4,256
 200185c:	3904703a 	and	r2,r7,r4
 2001860:	0007883a 	mov	r3,zero
 2001864:	10c4b03a 	or	r2,r2,r3
 2001868:	10000626 	beq	r2,zero,2001884 <__pack_d+0x2b8>
 200186c:	3a45883a 	add	r2,r7,r9
 2001870:	11cd803a 	cmpltu	r6,r2,r7
 2001874:	320d883a 	add	r6,r6,r8
 2001878:	100f883a 	mov	r7,r2
 200187c:	3011883a 	mov	r8,r6
 2001880:	0007883a 	mov	r3,zero
 2001884:	00840034 	movhi	r2,4096
 2001888:	10bfffc4 	addi	r2,r2,-1
 200188c:	123fe52e 	bgeu	r2,r8,2001824 <__pack_d+0x258>
 2001890:	00c00044 	movi	r3,1
 2001894:	003fe306 	br	2001824 <__pack_d+0x258>
 2001898:	0009883a 	mov	r4,zero
 200189c:	0013883a 	mov	r9,zero
 20018a0:	000b883a 	mov	r5,zero
 20018a4:	003fe406 	br	2001838 <__pack_d+0x26c>
 20018a8:	4a47883a 	add	r3,r9,r9
 20018ac:	008007c4 	movi	r2,31
 20018b0:	1105c83a 	sub	r2,r2,r4
 20018b4:	1886983a 	sll	r3,r3,r2
 20018b8:	4118d83a 	srl	r12,r8,r4
 20018bc:	491ad83a 	srl	r13,r9,r4
 20018c0:	1b18b03a 	or	r12,r3,r12
 20018c4:	003fb506 	br	200179c <__pack_d+0x1d0>
 20018c8:	2806d07a 	srli	r3,r5,1
 20018cc:	008007c4 	movi	r2,31
 20018d0:	1105c83a 	sub	r2,r2,r4
 20018d4:	1896d83a 	srl	r11,r3,r2
 20018d8:	2914983a 	sll	r10,r5,r4
 20018dc:	003fb506 	br	20017b4 <__pack_d+0x1e8>

020018e0 <__unpack_d>:
 20018e0:	20c00117 	ldw	r3,4(r4)
 20018e4:	22400017 	ldw	r9,0(r4)
 20018e8:	00800434 	movhi	r2,16
 20018ec:	10bfffc4 	addi	r2,r2,-1
 20018f0:	1808d53a 	srli	r4,r3,20
 20018f4:	180cd7fa 	srli	r6,r3,31
 20018f8:	1894703a 	and	r10,r3,r2
 20018fc:	2201ffcc 	andi	r8,r4,2047
 2001900:	281b883a 	mov	r13,r5
 2001904:	4817883a 	mov	r11,r9
 2001908:	29800115 	stw	r6,4(r5)
 200190c:	5019883a 	mov	r12,r10
 2001910:	40001e1e 	bne	r8,zero,200198c <__unpack_d+0xac>
 2001914:	4a84b03a 	or	r2,r9,r10
 2001918:	10001926 	beq	r2,zero,2001980 <__unpack_d+0xa0>
 200191c:	4804d63a 	srli	r2,r9,24
 2001920:	500c923a 	slli	r6,r10,8
 2001924:	013f0084 	movi	r4,-1022
 2001928:	00c40034 	movhi	r3,4096
 200192c:	18ffffc4 	addi	r3,r3,-1
 2001930:	118cb03a 	or	r6,r2,r6
 2001934:	008000c4 	movi	r2,3
 2001938:	480a923a 	slli	r5,r9,8
 200193c:	68800015 	stw	r2,0(r13)
 2001940:	69000215 	stw	r4,8(r13)
 2001944:	19800b36 	bltu	r3,r6,2001974 <__unpack_d+0x94>
 2001948:	200f883a 	mov	r7,r4
 200194c:	1811883a 	mov	r8,r3
 2001950:	2945883a 	add	r2,r5,r5
 2001954:	1149803a 	cmpltu	r4,r2,r5
 2001958:	3187883a 	add	r3,r6,r6
 200195c:	20c9883a 	add	r4,r4,r3
 2001960:	100b883a 	mov	r5,r2
 2001964:	200d883a 	mov	r6,r4
 2001968:	39ffffc4 	addi	r7,r7,-1
 200196c:	413ff82e 	bgeu	r8,r4,2001950 <__unpack_d+0x70>
 2001970:	69c00215 	stw	r7,8(r13)
 2001974:	69800415 	stw	r6,16(r13)
 2001978:	69400315 	stw	r5,12(r13)
 200197c:	f800283a 	ret
 2001980:	00800084 	movi	r2,2
 2001984:	28800015 	stw	r2,0(r5)
 2001988:	f800283a 	ret
 200198c:	0081ffc4 	movi	r2,2047
 2001990:	40800f26 	beq	r8,r2,20019d0 <__unpack_d+0xf0>
 2001994:	480cd63a 	srli	r6,r9,24
 2001998:	5006923a 	slli	r3,r10,8
 200199c:	4804923a 	slli	r2,r9,8
 20019a0:	0009883a 	mov	r4,zero
 20019a4:	30c6b03a 	or	r3,r6,r3
 20019a8:	01440034 	movhi	r5,4096
 20019ac:	110cb03a 	or	r6,r2,r4
 20019b0:	423f0044 	addi	r8,r8,-1023
 20019b4:	194eb03a 	or	r7,r3,r5
 20019b8:	008000c4 	movi	r2,3
 20019bc:	69c00415 	stw	r7,16(r13)
 20019c0:	6a000215 	stw	r8,8(r13)
 20019c4:	68800015 	stw	r2,0(r13)
 20019c8:	69800315 	stw	r6,12(r13)
 20019cc:	f800283a 	ret
 20019d0:	4a84b03a 	or	r2,r9,r10
 20019d4:	1000031e 	bne	r2,zero,20019e4 <__unpack_d+0x104>
 20019d8:	00800104 	movi	r2,4
 20019dc:	28800015 	stw	r2,0(r5)
 20019e0:	f800283a 	ret
 20019e4:	0009883a 	mov	r4,zero
 20019e8:	01400234 	movhi	r5,8
 20019ec:	4904703a 	and	r2,r9,r4
 20019f0:	5146703a 	and	r3,r10,r5
 20019f4:	10c4b03a 	or	r2,r2,r3
 20019f8:	10000526 	beq	r2,zero,2001a10 <__unpack_d+0x130>
 20019fc:	00800044 	movi	r2,1
 2001a00:	68800015 	stw	r2,0(r13)
 2001a04:	6b000415 	stw	r12,16(r13)
 2001a08:	6ac00315 	stw	r11,12(r13)
 2001a0c:	f800283a 	ret
 2001a10:	68000015 	stw	zero,0(r13)
 2001a14:	003ffb06 	br	2001a04 <__unpack_d+0x124>

02001a18 <__fpcmp_parts_d>:
 2001a18:	21800017 	ldw	r6,0(r4)
 2001a1c:	00c00044 	movi	r3,1
 2001a20:	19800a2e 	bgeu	r3,r6,2001a4c <__fpcmp_parts_d+0x34>
 2001a24:	28800017 	ldw	r2,0(r5)
 2001a28:	1880082e 	bgeu	r3,r2,2001a4c <__fpcmp_parts_d+0x34>
 2001a2c:	00c00104 	movi	r3,4
 2001a30:	30c02626 	beq	r6,r3,2001acc <__fpcmp_parts_d+0xb4>
 2001a34:	10c02226 	beq	r2,r3,2001ac0 <__fpcmp_parts_d+0xa8>
 2001a38:	00c00084 	movi	r3,2
 2001a3c:	30c00526 	beq	r6,r3,2001a54 <__fpcmp_parts_d+0x3c>
 2001a40:	10c0071e 	bne	r2,r3,2001a60 <__fpcmp_parts_d+0x48>
 2001a44:	20800117 	ldw	r2,4(r4)
 2001a48:	1000091e 	bne	r2,zero,2001a70 <__fpcmp_parts_d+0x58>
 2001a4c:	00800044 	movi	r2,1
 2001a50:	f800283a 	ret
 2001a54:	10c01a1e 	bne	r2,r3,2001ac0 <__fpcmp_parts_d+0xa8>
 2001a58:	0005883a 	mov	r2,zero
 2001a5c:	f800283a 	ret
 2001a60:	22000117 	ldw	r8,4(r4)
 2001a64:	28800117 	ldw	r2,4(r5)
 2001a68:	40800326 	beq	r8,r2,2001a78 <__fpcmp_parts_d+0x60>
 2001a6c:	403ff726 	beq	r8,zero,2001a4c <__fpcmp_parts_d+0x34>
 2001a70:	00bfffc4 	movi	r2,-1
 2001a74:	f800283a 	ret
 2001a78:	20c00217 	ldw	r3,8(r4)
 2001a7c:	28800217 	ldw	r2,8(r5)
 2001a80:	10fffa16 	blt	r2,r3,2001a6c <__fpcmp_parts_d+0x54>
 2001a84:	18800916 	blt	r3,r2,2001aac <__fpcmp_parts_d+0x94>
 2001a88:	21c00417 	ldw	r7,16(r4)
 2001a8c:	28c00417 	ldw	r3,16(r5)
 2001a90:	21800317 	ldw	r6,12(r4)
 2001a94:	28800317 	ldw	r2,12(r5)
 2001a98:	19fff436 	bltu	r3,r7,2001a6c <__fpcmp_parts_d+0x54>
 2001a9c:	38c00526 	beq	r7,r3,2001ab4 <__fpcmp_parts_d+0x9c>
 2001aa0:	38c00236 	bltu	r7,r3,2001aac <__fpcmp_parts_d+0x94>
 2001aa4:	19ffec1e 	bne	r3,r7,2001a58 <__fpcmp_parts_d+0x40>
 2001aa8:	30bfeb2e 	bgeu	r6,r2,2001a58 <__fpcmp_parts_d+0x40>
 2001aac:	403fe71e 	bne	r8,zero,2001a4c <__fpcmp_parts_d+0x34>
 2001ab0:	003fef06 	br	2001a70 <__fpcmp_parts_d+0x58>
 2001ab4:	11bffa2e 	bgeu	r2,r6,2001aa0 <__fpcmp_parts_d+0x88>
 2001ab8:	403fe426 	beq	r8,zero,2001a4c <__fpcmp_parts_d+0x34>
 2001abc:	003fec06 	br	2001a70 <__fpcmp_parts_d+0x58>
 2001ac0:	28800117 	ldw	r2,4(r5)
 2001ac4:	103fe11e 	bne	r2,zero,2001a4c <__fpcmp_parts_d+0x34>
 2001ac8:	003fe906 	br	2001a70 <__fpcmp_parts_d+0x58>
 2001acc:	11bfdd1e 	bne	r2,r6,2001a44 <__fpcmp_parts_d+0x2c>
 2001ad0:	28c00117 	ldw	r3,4(r5)
 2001ad4:	20800117 	ldw	r2,4(r4)
 2001ad8:	1885c83a 	sub	r2,r3,r2
 2001adc:	f800283a 	ret

02001ae0 <difftime>:
 2001ae0:	deffff04 	addi	sp,sp,-4
 2001ae4:	2149c83a 	sub	r4,r4,r5
 2001ae8:	dfc00015 	stw	ra,0(sp)
 2001aec:	2000fa00 	call	2000fa0 <__floatsidf>
 2001af0:	dfc00017 	ldw	ra,0(sp)
 2001af4:	dec00104 	addi	sp,sp,4
 2001af8:	f800283a 	ret

02001afc <_fopen_r>:
 2001afc:	defffa04 	addi	sp,sp,-24
 2001b00:	dcc00415 	stw	r19,16(sp)
 2001b04:	2827883a 	mov	r19,r5
 2001b08:	300b883a 	mov	r5,r6
 2001b0c:	d80d883a 	mov	r6,sp
 2001b10:	dc800315 	stw	r18,12(sp)
 2001b14:	dc400215 	stw	r17,8(sp)
 2001b18:	dc000115 	stw	r16,4(sp)
 2001b1c:	dfc00515 	stw	ra,20(sp)
 2001b20:	2021883a 	mov	r16,r4
 2001b24:	2006ec00 	call	2006ec0 <__sflags>
 2001b28:	1025883a 	mov	r18,r2
 2001b2c:	8009883a 	mov	r4,r16
 2001b30:	0023883a 	mov	r17,zero
 2001b34:	1000081e 	bne	r2,zero,2001b58 <_fopen_r+0x5c>
 2001b38:	8805883a 	mov	r2,r17
 2001b3c:	dfc00517 	ldw	ra,20(sp)
 2001b40:	dcc00417 	ldw	r19,16(sp)
 2001b44:	dc800317 	ldw	r18,12(sp)
 2001b48:	dc400217 	ldw	r17,8(sp)
 2001b4c:	dc000117 	ldw	r16,4(sp)
 2001b50:	dec00604 	addi	sp,sp,24
 2001b54:	f800283a 	ret
 2001b58:	2006dd00 	call	2006dd0 <__sfp>
 2001b5c:	1023883a 	mov	r17,r2
 2001b60:	980b883a 	mov	r5,r19
 2001b64:	8009883a 	mov	r4,r16
 2001b68:	01c06d84 	movi	r7,438
 2001b6c:	103ff226 	beq	r2,zero,2001b38 <_fopen_r+0x3c>
 2001b70:	d9800017 	ldw	r6,0(sp)
 2001b74:	2002a140 	call	2002a14 <_open_r>
 2001b78:	10001816 	blt	r2,zero,2001bdc <_fopen_r+0xe0>
 2001b7c:	00c08034 	movhi	r3,512
 2001b80:	18cbc304 	addi	r3,r3,12044
 2001b84:	923fffcc 	andi	r8,r18,65535
 2001b88:	8880038d 	sth	r2,14(r17)
 2001b8c:	00808034 	movhi	r2,512
 2001b90:	108be204 	addi	r2,r2,12168
 2001b94:	88800815 	stw	r2,32(r17)
 2001b98:	88c00915 	stw	r3,36(r17)
 2001b9c:	00808034 	movhi	r2,512
 2001ba0:	108ba904 	addi	r2,r2,11940
 2001ba4:	00c08034 	movhi	r3,512
 2001ba8:	18cba704 	addi	r3,r3,11932
 2001bac:	4200400c 	andi	r8,r8,256
 2001bb0:	8c80030d 	sth	r18,12(r17)
 2001bb4:	8009883a 	mov	r4,r16
 2001bb8:	880b883a 	mov	r5,r17
 2001bbc:	000d883a 	mov	r6,zero
 2001bc0:	01c00084 	movi	r7,2
 2001bc4:	88800a15 	stw	r2,40(r17)
 2001bc8:	88c00b15 	stw	r3,44(r17)
 2001bcc:	8c400715 	stw	r17,28(r17)
 2001bd0:	403fd926 	beq	r8,zero,2001b38 <_fopen_r+0x3c>
 2001bd4:	2001c6c0 	call	2001c6c <_fseek_r>
 2001bd8:	003fd706 	br	2001b38 <_fopen_r+0x3c>
 2001bdc:	2006c580 	call	2006c58 <__sfp_lock_acquire>
 2001be0:	8800030d 	sth	zero,12(r17)
 2001be4:	2006c5c0 	call	2006c5c <__sfp_lock_release>
 2001be8:	0023883a 	mov	r17,zero
 2001bec:	003fd206 	br	2001b38 <_fopen_r+0x3c>

02001bf0 <fopen>:
 2001bf0:	01808074 	movhi	r6,513
 2001bf4:	31850f04 	addi	r6,r6,5180
 2001bf8:	2007883a 	mov	r3,r4
 2001bfc:	31000017 	ldw	r4,0(r6)
 2001c00:	280d883a 	mov	r6,r5
 2001c04:	180b883a 	mov	r5,r3
 2001c08:	2001afc1 	jmpi	2001afc <_fopen_r>

02001c0c <fprintf>:
 2001c0c:	defffc04 	addi	sp,sp,-16
 2001c10:	dfc00115 	stw	ra,4(sp)
 2001c14:	d9800215 	stw	r6,8(sp)
 2001c18:	d9c00315 	stw	r7,12(sp)
 2001c1c:	d8800204 	addi	r2,sp,8
 2001c20:	100d883a 	mov	r6,r2
 2001c24:	d8800015 	stw	r2,0(sp)
 2001c28:	2004fbc0 	call	2004fbc <__vfprintf_internal>
 2001c2c:	dfc00117 	ldw	ra,4(sp)
 2001c30:	dec00404 	addi	sp,sp,16
 2001c34:	f800283a 	ret

02001c38 <_fprintf_r>:
 2001c38:	defffd04 	addi	sp,sp,-12
 2001c3c:	2807883a 	mov	r3,r5
 2001c40:	dfc00115 	stw	ra,4(sp)
 2001c44:	d9c00215 	stw	r7,8(sp)
 2001c48:	d8800204 	addi	r2,sp,8
 2001c4c:	300b883a 	mov	r5,r6
 2001c50:	1809883a 	mov	r4,r3
 2001c54:	100d883a 	mov	r6,r2
 2001c58:	d8800015 	stw	r2,0(sp)
 2001c5c:	2004fbc0 	call	2004fbc <__vfprintf_internal>
 2001c60:	dfc00117 	ldw	ra,4(sp)
 2001c64:	dec00304 	addi	sp,sp,12
 2001c68:	f800283a 	ret

02001c6c <_fseek_r>:
 2001c6c:	deffe804 	addi	sp,sp,-96
 2001c70:	dd801515 	stw	r22,84(sp)
 2001c74:	dcc01215 	stw	r19,72(sp)
 2001c78:	dc801115 	stw	r18,68(sp)
 2001c7c:	dc000f15 	stw	r16,60(sp)
 2001c80:	dfc01715 	stw	ra,92(sp)
 2001c84:	ddc01615 	stw	r23,88(sp)
 2001c88:	dd401415 	stw	r21,80(sp)
 2001c8c:	dd001315 	stw	r20,76(sp)
 2001c90:	dc401015 	stw	r17,64(sp)
 2001c94:	2025883a 	mov	r18,r4
 2001c98:	2821883a 	mov	r16,r5
 2001c9c:	302d883a 	mov	r22,r6
 2001ca0:	3827883a 	mov	r19,r7
 2001ca4:	20000226 	beq	r4,zero,2001cb0 <_fseek_r+0x44>
 2001ca8:	20800e17 	ldw	r2,56(r4)
 2001cac:	10007826 	beq	r2,zero,2001e90 <_fseek_r+0x224>
 2001cb0:	8080030b 	ldhu	r2,12(r16)
 2001cb4:	00c04204 	movi	r3,264
 2001cb8:	1080420c 	andi	r2,r2,264
 2001cbc:	10c07926 	beq	r2,r3,2001ea4 <_fseek_r+0x238>
 2001cc0:	85400a17 	ldw	r21,40(r16)
 2001cc4:	a800ea26 	beq	r21,zero,2002070 <_fseek_r+0x404>
 2001cc8:	00800044 	movi	r2,1
 2001ccc:	98805f26 	beq	r19,r2,2001e4c <_fseek_r+0x1e0>
 2001cd0:	00800084 	movi	r2,2
 2001cd4:	98801026 	beq	r19,r2,2001d18 <_fseek_r+0xac>
 2001cd8:	98000f26 	beq	r19,zero,2001d18 <_fseek_r+0xac>
 2001cdc:	00800584 	movi	r2,22
 2001ce0:	013fffc4 	movi	r4,-1
 2001ce4:	90800015 	stw	r2,0(r18)
 2001ce8:	2005883a 	mov	r2,r4
 2001cec:	dfc01717 	ldw	ra,92(sp)
 2001cf0:	ddc01617 	ldw	r23,88(sp)
 2001cf4:	dd801517 	ldw	r22,84(sp)
 2001cf8:	dd401417 	ldw	r21,80(sp)
 2001cfc:	dd001317 	ldw	r20,76(sp)
 2001d00:	dcc01217 	ldw	r19,72(sp)
 2001d04:	dc801117 	ldw	r18,68(sp)
 2001d08:	dc401017 	ldw	r17,64(sp)
 2001d0c:	dc000f17 	ldw	r16,60(sp)
 2001d10:	dec01804 	addi	sp,sp,96
 2001d14:	f800283a 	ret
 2001d18:	81800417 	ldw	r6,16(r16)
 2001d1c:	0023883a 	mov	r17,zero
 2001d20:	002f883a 	mov	r23,zero
 2001d24:	3000a626 	beq	r6,zero,2001fc0 <_fseek_r+0x354>
 2001d28:	8100030b 	ldhu	r4,12(r16)
 2001d2c:	2082068c 	andi	r2,r4,2074
 2001d30:	1000081e 	bne	r2,zero,2001d54 <_fseek_r+0xe8>
 2001d34:	2081000c 	andi	r2,r4,1024
 2001d38:	10001b1e 	bne	r2,zero,2001da8 <_fseek_r+0x13c>
 2001d3c:	00808034 	movhi	r2,512
 2001d40:	108ba904 	addi	r2,r2,11940
 2001d44:	a8800926 	beq	r21,r2,2001d6c <_fseek_r+0x100>
 2001d48:	8080030b 	ldhu	r2,12(r16)
 2001d4c:	10820014 	ori	r2,r2,2048
 2001d50:	8080030d 	sth	r2,12(r16)
 2001d54:	9009883a 	mov	r4,r18
 2001d58:	800b883a 	mov	r5,r16
 2001d5c:	20069d00 	call	20069d0 <_fflush_r>
 2001d60:	1000a326 	beq	r2,zero,2001ff0 <_fseek_r+0x384>
 2001d64:	013fffc4 	movi	r4,-1
 2001d68:	003fdf06 	br	2001ce8 <_fseek_r+0x7c>
 2001d6c:	8140038f 	ldh	r5,14(r16)
 2001d70:	283ff516 	blt	r5,zero,2001d48 <_fseek_r+0xdc>
 2001d74:	9009883a 	mov	r4,r18
 2001d78:	d80d883a 	mov	r6,sp
 2001d7c:	20020cc0 	call	20020cc <_fstat_r>
 2001d80:	103ff11e 	bne	r2,zero,2001d48 <_fseek_r+0xdc>
 2001d84:	d8800117 	ldw	r2,4(sp)
 2001d88:	00e00014 	movui	r3,32768
 2001d8c:	10bc000c 	andi	r2,r2,61440
 2001d90:	10ffed1e 	bne	r2,r3,2001d48 <_fseek_r+0xdc>
 2001d94:	80c0030b 	ldhu	r3,12(r16)
 2001d98:	00810004 	movi	r2,1024
 2001d9c:	80801315 	stw	r2,76(r16)
 2001da0:	1886b03a 	or	r3,r3,r2
 2001da4:	80c0030d 	sth	r3,12(r16)
 2001da8:	9800701e 	bne	r19,zero,2001f6c <_fseek_r+0x300>
 2001dac:	b029883a 	mov	r20,r22
 2001db0:	b804c03a 	cmpne	r2,r23,zero
 2001db4:	10003f1e 	bne	r2,zero,2001eb4 <_fseek_r+0x248>
 2001db8:	8100030b 	ldhu	r4,12(r16)
 2001dbc:	2084000c 	andi	r2,r4,4096
 2001dc0:	1000a126 	beq	r2,zero,2002048 <_fseek_r+0x3dc>
 2001dc4:	81801417 	ldw	r6,80(r16)
 2001dc8:	80c00117 	ldw	r3,4(r16)
 2001dcc:	81400c17 	ldw	r5,48(r16)
 2001dd0:	30e3c83a 	sub	r17,r6,r3
 2001dd4:	28008026 	beq	r5,zero,2001fd8 <_fseek_r+0x36c>
 2001dd8:	81c00f17 	ldw	r7,60(r16)
 2001ddc:	89e3c83a 	sub	r17,r17,r7
 2001de0:	80800e17 	ldw	r2,56(r16)
 2001de4:	81800417 	ldw	r6,16(r16)
 2001de8:	88c7883a 	add	r3,r17,r3
 2001dec:	1185c83a 	sub	r2,r2,r6
 2001df0:	11cf883a 	add	r7,r2,r7
 2001df4:	1887c83a 	sub	r3,r3,r2
 2001df8:	2088000c 	andi	r2,r4,8192
 2001dfc:	10003e1e 	bne	r2,zero,2001ef8 <_fseek_r+0x28c>
 2001e00:	a0c03d16 	blt	r20,r3,2001ef8 <_fseek_r+0x28c>
 2001e04:	38c5883a 	add	r2,r7,r3
 2001e08:	a0803b2e 	bgeu	r20,r2,2001ef8 <_fseek_r+0x28c>
 2001e0c:	a0c5c83a 	sub	r2,r20,r3
 2001e10:	3887c83a 	sub	r3,r7,r2
 2001e14:	3085883a 	add	r2,r6,r2
 2001e18:	80800015 	stw	r2,0(r16)
 2001e1c:	80c00115 	stw	r3,4(r16)
 2001e20:	28000526 	beq	r5,zero,2001e38 <_fseek_r+0x1cc>
 2001e24:	80801004 	addi	r2,r16,64
 2001e28:	28800226 	beq	r5,r2,2001e34 <_fseek_r+0x1c8>
 2001e2c:	9009883a 	mov	r4,r18
 2001e30:	200708c0 	call	200708c <_free_r>
 2001e34:	80000c15 	stw	zero,48(r16)
 2001e38:	8080030b 	ldhu	r2,12(r16)
 2001e3c:	0009883a 	mov	r4,zero
 2001e40:	10bff7cc 	andi	r2,r2,65503
 2001e44:	8080030d 	sth	r2,12(r16)
 2001e48:	003fa706 	br	2001ce8 <_fseek_r+0x7c>
 2001e4c:	9009883a 	mov	r4,r18
 2001e50:	800b883a 	mov	r5,r16
 2001e54:	20069d00 	call	20069d0 <_fflush_r>
 2001e58:	8100030b 	ldhu	r4,12(r16)
 2001e5c:	2084000c 	andi	r2,r4,4096
 2001e60:	10008726 	beq	r2,zero,2002080 <_fseek_r+0x414>
 2001e64:	84401417 	ldw	r17,80(r16)
 2001e68:	2080010c 	andi	r2,r4,4
 2001e6c:	1000171e 	bne	r2,zero,2001ecc <_fseek_r+0x260>
 2001e70:	2080020c 	andi	r2,r4,8
 2001e74:	10003b26 	beq	r2,zero,2001f64 <_fseek_r+0x2f8>
 2001e78:	80800017 	ldw	r2,0(r16)
 2001e7c:	10003926 	beq	r2,zero,2001f64 <_fseek_r+0x2f8>
 2001e80:	81800417 	ldw	r6,16(r16)
 2001e84:	1185c83a 	sub	r2,r2,r6
 2001e88:	88a3883a 	add	r17,r17,r2
 2001e8c:	00001606 	br	2001ee8 <_fseek_r+0x27c>
 2001e90:	2006c680 	call	2006c68 <__sinit>
 2001e94:	8080030b 	ldhu	r2,12(r16)
 2001e98:	00c04204 	movi	r3,264
 2001e9c:	1080420c 	andi	r2,r2,264
 2001ea0:	10ff871e 	bne	r2,r3,2001cc0 <_fseek_r+0x54>
 2001ea4:	9009883a 	mov	r4,r18
 2001ea8:	800b883a 	mov	r5,r16
 2001eac:	20069d00 	call	20069d0 <_fflush_r>
 2001eb0:	003f8306 	br	2001cc0 <_fseek_r+0x54>
 2001eb4:	81400c17 	ldw	r5,48(r16)
 2001eb8:	28004526 	beq	r5,zero,2001fd0 <_fseek_r+0x364>
 2001ebc:	8100030b 	ldhu	r4,12(r16)
 2001ec0:	80c00117 	ldw	r3,4(r16)
 2001ec4:	81c00f17 	ldw	r7,60(r16)
 2001ec8:	003fc506 	br	2001de0 <_fseek_r+0x174>
 2001ecc:	80c00117 	ldw	r3,4(r16)
 2001ed0:	80800c17 	ldw	r2,48(r16)
 2001ed4:	88e3c83a 	sub	r17,r17,r3
 2001ed8:	10002226 	beq	r2,zero,2001f64 <_fseek_r+0x2f8>
 2001edc:	81c00f17 	ldw	r7,60(r16)
 2001ee0:	81800417 	ldw	r6,16(r16)
 2001ee4:	89e3c83a 	sub	r17,r17,r7
 2001ee8:	b46d883a 	add	r22,r22,r17
 2001eec:	0027883a 	mov	r19,zero
 2001ef0:	05c00044 	movi	r23,1
 2001ef4:	003f8b06 	br	2001d24 <_fseek_r+0xb8>
 2001ef8:	80801317 	ldw	r2,76(r16)
 2001efc:	81400717 	ldw	r5,28(r16)
 2001f00:	9009883a 	mov	r4,r18
 2001f04:	0085c83a 	sub	r2,zero,r2
 2001f08:	a0a2703a 	and	r17,r20,r2
 2001f0c:	880d883a 	mov	r6,r17
 2001f10:	000f883a 	mov	r7,zero
 2001f14:	a83ee83a 	callr	r21
 2001f18:	00ffffc4 	movi	r3,-1
 2001f1c:	10ff8d26 	beq	r2,r3,2001d54 <_fseek_r+0xe8>
 2001f20:	80800417 	ldw	r2,16(r16)
 2001f24:	81400c17 	ldw	r5,48(r16)
 2001f28:	80000115 	stw	zero,4(r16)
 2001f2c:	80800015 	stw	r2,0(r16)
 2001f30:	28000526 	beq	r5,zero,2001f48 <_fseek_r+0x2dc>
 2001f34:	80801004 	addi	r2,r16,64
 2001f38:	28800226 	beq	r5,r2,2001f44 <_fseek_r+0x2d8>
 2001f3c:	9009883a 	mov	r4,r18
 2001f40:	200708c0 	call	200708c <_free_r>
 2001f44:	80000c15 	stw	zero,48(r16)
 2001f48:	8080030b 	ldhu	r2,12(r16)
 2001f4c:	a463c83a 	sub	r17,r20,r17
 2001f50:	10bff7cc 	andi	r2,r2,65503
 2001f54:	8080030d 	sth	r2,12(r16)
 2001f58:	88000c1e 	bne	r17,zero,2001f8c <_fseek_r+0x320>
 2001f5c:	0009883a 	mov	r4,zero
 2001f60:	003f6106 	br	2001ce8 <_fseek_r+0x7c>
 2001f64:	81800417 	ldw	r6,16(r16)
 2001f68:	003fdf06 	br	2001ee8 <_fseek_r+0x27c>
 2001f6c:	8140038f 	ldh	r5,14(r16)
 2001f70:	9009883a 	mov	r4,r18
 2001f74:	d80d883a 	mov	r6,sp
 2001f78:	20020cc0 	call	20020cc <_fstat_r>
 2001f7c:	103f751e 	bne	r2,zero,2001d54 <_fseek_r+0xe8>
 2001f80:	d8800417 	ldw	r2,16(sp)
 2001f84:	b0a9883a 	add	r20,r22,r2
 2001f88:	003f8906 	br	2001db0 <_fseek_r+0x144>
 2001f8c:	9009883a 	mov	r4,r18
 2001f90:	800b883a 	mov	r5,r16
 2001f94:	2002c4c0 	call	2002c4c <__srefill_r>
 2001f98:	103f6e1e 	bne	r2,zero,2001d54 <_fseek_r+0xe8>
 2001f9c:	80c00117 	ldw	r3,4(r16)
 2001fa0:	1c7f6c36 	bltu	r3,r17,2001d54 <_fseek_r+0xe8>
 2001fa4:	80800017 	ldw	r2,0(r16)
 2001fa8:	1c47c83a 	sub	r3,r3,r17
 2001fac:	0009883a 	mov	r4,zero
 2001fb0:	1445883a 	add	r2,r2,r17
 2001fb4:	80c00115 	stw	r3,4(r16)
 2001fb8:	80800015 	stw	r2,0(r16)
 2001fbc:	003f4a06 	br	2001ce8 <_fseek_r+0x7c>
 2001fc0:	9009883a 	mov	r4,r18
 2001fc4:	800b883a 	mov	r5,r16
 2001fc8:	20021400 	call	2002140 <__smakebuf_r>
 2001fcc:	003f5606 	br	2001d28 <_fseek_r+0xbc>
 2001fd0:	8100030b 	ldhu	r4,12(r16)
 2001fd4:	80c00117 	ldw	r3,4(r16)
 2001fd8:	80800017 	ldw	r2,0(r16)
 2001fdc:	81800417 	ldw	r6,16(r16)
 2001fe0:	1185c83a 	sub	r2,r2,r6
 2001fe4:	10cf883a 	add	r7,r2,r3
 2001fe8:	8887c83a 	sub	r3,r17,r2
 2001fec:	003f8206 	br	2001df8 <_fseek_r+0x18c>
 2001ff0:	81400717 	ldw	r5,28(r16)
 2001ff4:	b00d883a 	mov	r6,r22
 2001ff8:	980f883a 	mov	r7,r19
 2001ffc:	9009883a 	mov	r4,r18
 2002000:	a83ee83a 	callr	r21
 2002004:	00ffffc4 	movi	r3,-1
 2002008:	10ff5626 	beq	r2,r3,2001d64 <_fseek_r+0xf8>
 200200c:	81400c17 	ldw	r5,48(r16)
 2002010:	28000526 	beq	r5,zero,2002028 <_fseek_r+0x3bc>
 2002014:	80801004 	addi	r2,r16,64
 2002018:	28800226 	beq	r5,r2,2002024 <_fseek_r+0x3b8>
 200201c:	9009883a 	mov	r4,r18
 2002020:	200708c0 	call	200708c <_free_r>
 2002024:	80000c15 	stw	zero,48(r16)
 2002028:	8080030b 	ldhu	r2,12(r16)
 200202c:	80c00417 	ldw	r3,16(r16)
 2002030:	0009883a 	mov	r4,zero
 2002034:	10bdf7cc 	andi	r2,r2,63455
 2002038:	8080030d 	sth	r2,12(r16)
 200203c:	80c00015 	stw	r3,0(r16)
 2002040:	80000115 	stw	zero,4(r16)
 2002044:	003f2806 	br	2001ce8 <_fseek_r+0x7c>
 2002048:	81400717 	ldw	r5,28(r16)
 200204c:	000d883a 	mov	r6,zero
 2002050:	9009883a 	mov	r4,r18
 2002054:	01c00044 	movi	r7,1
 2002058:	a83ee83a 	callr	r21
 200205c:	100d883a 	mov	r6,r2
 2002060:	00bfffc4 	movi	r2,-1
 2002064:	30bf3b26 	beq	r6,r2,2001d54 <_fseek_r+0xe8>
 2002068:	8100030b 	ldhu	r4,12(r16)
 200206c:	003f5606 	br	2001dc8 <_fseek_r+0x15c>
 2002070:	00800744 	movi	r2,29
 2002074:	013fffc4 	movi	r4,-1
 2002078:	90800015 	stw	r2,0(r18)
 200207c:	003f1a06 	br	2001ce8 <_fseek_r+0x7c>
 2002080:	81400717 	ldw	r5,28(r16)
 2002084:	980f883a 	mov	r7,r19
 2002088:	9009883a 	mov	r4,r18
 200208c:	000d883a 	mov	r6,zero
 2002090:	a83ee83a 	callr	r21
 2002094:	1023883a 	mov	r17,r2
 2002098:	00bfffc4 	movi	r2,-1
 200209c:	88bf3126 	beq	r17,r2,2001d64 <_fseek_r+0xf8>
 20020a0:	8100030b 	ldhu	r4,12(r16)
 20020a4:	003f7006 	br	2001e68 <_fseek_r+0x1fc>

020020a8 <fseek>:
 20020a8:	00808074 	movhi	r2,513
 20020ac:	10850f04 	addi	r2,r2,5180
 20020b0:	2013883a 	mov	r9,r4
 20020b4:	11000017 	ldw	r4,0(r2)
 20020b8:	2805883a 	mov	r2,r5
 20020bc:	300f883a 	mov	r7,r6
 20020c0:	480b883a 	mov	r5,r9
 20020c4:	100d883a 	mov	r6,r2
 20020c8:	2001c6c1 	jmpi	2001c6c <_fseek_r>

020020cc <_fstat_r>:
 20020cc:	defffd04 	addi	sp,sp,-12
 20020d0:	dc000015 	stw	r16,0(sp)
 20020d4:	04008074 	movhi	r16,513
 20020d8:	840c0604 	addi	r16,r16,12312
 20020dc:	dc400115 	stw	r17,4(sp)
 20020e0:	80000015 	stw	zero,0(r16)
 20020e4:	2023883a 	mov	r17,r4
 20020e8:	2809883a 	mov	r4,r5
 20020ec:	300b883a 	mov	r5,r6
 20020f0:	dfc00215 	stw	ra,8(sp)
 20020f4:	200b4fc0 	call	200b4fc <fstat>
 20020f8:	1007883a 	mov	r3,r2
 20020fc:	00bfffc4 	movi	r2,-1
 2002100:	18800626 	beq	r3,r2,200211c <_fstat_r+0x50>
 2002104:	1805883a 	mov	r2,r3
 2002108:	dfc00217 	ldw	ra,8(sp)
 200210c:	dc400117 	ldw	r17,4(sp)
 2002110:	dc000017 	ldw	r16,0(sp)
 2002114:	dec00304 	addi	sp,sp,12
 2002118:	f800283a 	ret
 200211c:	80800017 	ldw	r2,0(r16)
 2002120:	103ff826 	beq	r2,zero,2002104 <_fstat_r+0x38>
 2002124:	88800015 	stw	r2,0(r17)
 2002128:	1805883a 	mov	r2,r3
 200212c:	dfc00217 	ldw	ra,8(sp)
 2002130:	dc400117 	ldw	r17,4(sp)
 2002134:	dc000017 	ldw	r16,0(sp)
 2002138:	dec00304 	addi	sp,sp,12
 200213c:	f800283a 	ret

02002140 <__smakebuf_r>:
 2002140:	2880030b 	ldhu	r2,12(r5)
 2002144:	deffed04 	addi	sp,sp,-76
 2002148:	dc401015 	stw	r17,64(sp)
 200214c:	1080008c 	andi	r2,r2,2
 2002150:	dc000f15 	stw	r16,60(sp)
 2002154:	dfc01215 	stw	ra,72(sp)
 2002158:	dc801115 	stw	r18,68(sp)
 200215c:	2821883a 	mov	r16,r5
 2002160:	2023883a 	mov	r17,r4
 2002164:	10000b26 	beq	r2,zero,2002194 <__smakebuf_r+0x54>
 2002168:	28c010c4 	addi	r3,r5,67
 200216c:	00800044 	movi	r2,1
 2002170:	28800515 	stw	r2,20(r5)
 2002174:	28c00415 	stw	r3,16(r5)
 2002178:	28c00015 	stw	r3,0(r5)
 200217c:	dfc01217 	ldw	ra,72(sp)
 2002180:	dc801117 	ldw	r18,68(sp)
 2002184:	dc401017 	ldw	r17,64(sp)
 2002188:	dc000f17 	ldw	r16,60(sp)
 200218c:	dec01304 	addi	sp,sp,76
 2002190:	f800283a 	ret
 2002194:	2940038f 	ldh	r5,14(r5)
 2002198:	28002116 	blt	r5,zero,2002220 <__smakebuf_r+0xe0>
 200219c:	d80d883a 	mov	r6,sp
 20021a0:	20020cc0 	call	20020cc <_fstat_r>
 20021a4:	10001e16 	blt	r2,zero,2002220 <__smakebuf_r+0xe0>
 20021a8:	d8800117 	ldw	r2,4(sp)
 20021ac:	00e00014 	movui	r3,32768
 20021b0:	113c000c 	andi	r4,r2,61440
 20021b4:	20c03126 	beq	r4,r3,200227c <__smakebuf_r+0x13c>
 20021b8:	8080030b 	ldhu	r2,12(r16)
 20021bc:	00c80004 	movi	r3,8192
 20021c0:	10820014 	ori	r2,r2,2048
 20021c4:	8080030d 	sth	r2,12(r16)
 20021c8:	20c01e26 	beq	r4,r3,2002244 <__smakebuf_r+0x104>
 20021cc:	04810004 	movi	r18,1024
 20021d0:	8809883a 	mov	r4,r17
 20021d4:	900b883a 	mov	r5,r18
 20021d8:	20022d40 	call	20022d4 <_malloc_r>
 20021dc:	1009883a 	mov	r4,r2
 20021e0:	10003126 	beq	r2,zero,20022a8 <__smakebuf_r+0x168>
 20021e4:	80c0030b 	ldhu	r3,12(r16)
 20021e8:	00808034 	movhi	r2,512
 20021ec:	109b5304 	addi	r2,r2,27980
 20021f0:	88800f15 	stw	r2,60(r17)
 20021f4:	18c02014 	ori	r3,r3,128
 20021f8:	84800515 	stw	r18,20(r16)
 20021fc:	80c0030d 	sth	r3,12(r16)
 2002200:	81000415 	stw	r4,16(r16)
 2002204:	81000015 	stw	r4,0(r16)
 2002208:	dfc01217 	ldw	ra,72(sp)
 200220c:	dc801117 	ldw	r18,68(sp)
 2002210:	dc401017 	ldw	r17,64(sp)
 2002214:	dc000f17 	ldw	r16,60(sp)
 2002218:	dec01304 	addi	sp,sp,76
 200221c:	f800283a 	ret
 2002220:	80c0030b 	ldhu	r3,12(r16)
 2002224:	1880200c 	andi	r2,r3,128
 2002228:	10000426 	beq	r2,zero,200223c <__smakebuf_r+0xfc>
 200222c:	04801004 	movi	r18,64
 2002230:	18820014 	ori	r2,r3,2048
 2002234:	8080030d 	sth	r2,12(r16)
 2002238:	003fe506 	br	20021d0 <__smakebuf_r+0x90>
 200223c:	04810004 	movi	r18,1024
 2002240:	003ffb06 	br	2002230 <__smakebuf_r+0xf0>
 2002244:	8140038f 	ldh	r5,14(r16)
 2002248:	8809883a 	mov	r4,r17
 200224c:	2007a300 	call	2007a30 <_isatty_r>
 2002250:	103fde26 	beq	r2,zero,20021cc <__smakebuf_r+0x8c>
 2002254:	8080030b 	ldhu	r2,12(r16)
 2002258:	80c010c4 	addi	r3,r16,67
 200225c:	04810004 	movi	r18,1024
 2002260:	10800054 	ori	r2,r2,1
 2002264:	8080030d 	sth	r2,12(r16)
 2002268:	00800044 	movi	r2,1
 200226c:	80c00415 	stw	r3,16(r16)
 2002270:	80800515 	stw	r2,20(r16)
 2002274:	80c00015 	stw	r3,0(r16)
 2002278:	003fd506 	br	20021d0 <__smakebuf_r+0x90>
 200227c:	80c00a17 	ldw	r3,40(r16)
 2002280:	00808034 	movhi	r2,512
 2002284:	108ba904 	addi	r2,r2,11940
 2002288:	18bfcb1e 	bne	r3,r2,20021b8 <__smakebuf_r+0x78>
 200228c:	8080030b 	ldhu	r2,12(r16)
 2002290:	00c10004 	movi	r3,1024
 2002294:	1825883a 	mov	r18,r3
 2002298:	10c4b03a 	or	r2,r2,r3
 200229c:	8080030d 	sth	r2,12(r16)
 20022a0:	80c01315 	stw	r3,76(r16)
 20022a4:	003fca06 	br	20021d0 <__smakebuf_r+0x90>
 20022a8:	8100030b 	ldhu	r4,12(r16)
 20022ac:	2080800c 	andi	r2,r4,512
 20022b0:	103fb21e 	bne	r2,zero,200217c <__smakebuf_r+0x3c>
 20022b4:	80c010c4 	addi	r3,r16,67
 20022b8:	21000094 	ori	r4,r4,2
 20022bc:	00800044 	movi	r2,1
 20022c0:	80800515 	stw	r2,20(r16)
 20022c4:	8100030d 	sth	r4,12(r16)
 20022c8:	80c00415 	stw	r3,16(r16)
 20022cc:	80c00015 	stw	r3,0(r16)
 20022d0:	003faa06 	br	200217c <__smakebuf_r+0x3c>

020022d4 <_malloc_r>:
 20022d4:	defff604 	addi	sp,sp,-40
 20022d8:	28c002c4 	addi	r3,r5,11
 20022dc:	00800584 	movi	r2,22
 20022e0:	dc800215 	stw	r18,8(sp)
 20022e4:	dfc00915 	stw	ra,36(sp)
 20022e8:	df000815 	stw	fp,32(sp)
 20022ec:	ddc00715 	stw	r23,28(sp)
 20022f0:	dd800615 	stw	r22,24(sp)
 20022f4:	dd400515 	stw	r21,20(sp)
 20022f8:	dd000415 	stw	r20,16(sp)
 20022fc:	dcc00315 	stw	r19,12(sp)
 2002300:	dc400115 	stw	r17,4(sp)
 2002304:	dc000015 	stw	r16,0(sp)
 2002308:	2025883a 	mov	r18,r4
 200230c:	10c01236 	bltu	r2,r3,2002358 <_malloc_r+0x84>
 2002310:	04400404 	movi	r17,16
 2002314:	8940142e 	bgeu	r17,r5,2002368 <_malloc_r+0x94>
 2002318:	00800304 	movi	r2,12
 200231c:	0007883a 	mov	r3,zero
 2002320:	90800015 	stw	r2,0(r18)
 2002324:	1805883a 	mov	r2,r3
 2002328:	dfc00917 	ldw	ra,36(sp)
 200232c:	df000817 	ldw	fp,32(sp)
 2002330:	ddc00717 	ldw	r23,28(sp)
 2002334:	dd800617 	ldw	r22,24(sp)
 2002338:	dd400517 	ldw	r21,20(sp)
 200233c:	dd000417 	ldw	r20,16(sp)
 2002340:	dcc00317 	ldw	r19,12(sp)
 2002344:	dc800217 	ldw	r18,8(sp)
 2002348:	dc400117 	ldw	r17,4(sp)
 200234c:	dc000017 	ldw	r16,0(sp)
 2002350:	dec00a04 	addi	sp,sp,40
 2002354:	f800283a 	ret
 2002358:	00bffe04 	movi	r2,-8
 200235c:	18a2703a 	and	r17,r3,r2
 2002360:	883fed16 	blt	r17,zero,2002318 <_malloc_r+0x44>
 2002364:	897fec36 	bltu	r17,r5,2002318 <_malloc_r+0x44>
 2002368:	9009883a 	mov	r4,r18
 200236c:	200bc140 	call	200bc14 <__malloc_lock>
 2002370:	00807dc4 	movi	r2,503
 2002374:	14402b2e 	bgeu	r2,r17,2002424 <_malloc_r+0x150>
 2002378:	8806d27a 	srli	r3,r17,9
 200237c:	18003f1e 	bne	r3,zero,200247c <_malloc_r+0x1a8>
 2002380:	880cd0fa 	srli	r6,r17,3
 2002384:	300490fa 	slli	r2,r6,3
 2002388:	02c08074 	movhi	r11,513
 200238c:	5aff4004 	addi	r11,r11,-768
 2002390:	12cb883a 	add	r5,r2,r11
 2002394:	2c000317 	ldw	r16,12(r5)
 2002398:	580f883a 	mov	r7,r11
 200239c:	2c00041e 	bne	r5,r16,20023b0 <_malloc_r+0xdc>
 20023a0:	00000a06 	br	20023cc <_malloc_r+0xf8>
 20023a4:	1800860e 	bge	r3,zero,20025c0 <_malloc_r+0x2ec>
 20023a8:	84000317 	ldw	r16,12(r16)
 20023ac:	2c000726 	beq	r5,r16,20023cc <_malloc_r+0xf8>
 20023b0:	80800117 	ldw	r2,4(r16)
 20023b4:	00ffff04 	movi	r3,-4
 20023b8:	10c8703a 	and	r4,r2,r3
 20023bc:	2447c83a 	sub	r3,r4,r17
 20023c0:	008003c4 	movi	r2,15
 20023c4:	10fff70e 	bge	r2,r3,20023a4 <_malloc_r+0xd0>
 20023c8:	31bfffc4 	addi	r6,r6,-1
 20023cc:	32400044 	addi	r9,r6,1
 20023d0:	02808074 	movhi	r10,513
 20023d4:	52bf4204 	addi	r10,r10,-760
 20023d8:	54000217 	ldw	r16,8(r10)
 20023dc:	8280a026 	beq	r16,r10,2002660 <_malloc_r+0x38c>
 20023e0:	80800117 	ldw	r2,4(r16)
 20023e4:	00ffff04 	movi	r3,-4
 20023e8:	10ca703a 	and	r5,r2,r3
 20023ec:	2c4dc83a 	sub	r6,r5,r17
 20023f0:	008003c4 	movi	r2,15
 20023f4:	11808316 	blt	r2,r6,2002604 <_malloc_r+0x330>
 20023f8:	52800315 	stw	r10,12(r10)
 20023fc:	52800215 	stw	r10,8(r10)
 2002400:	30002916 	blt	r6,zero,20024a8 <_malloc_r+0x1d4>
 2002404:	8147883a 	add	r3,r16,r5
 2002408:	18800117 	ldw	r2,4(r3)
 200240c:	9009883a 	mov	r4,r18
 2002410:	10800054 	ori	r2,r2,1
 2002414:	18800115 	stw	r2,4(r3)
 2002418:	200bc340 	call	200bc34 <__malloc_unlock>
 200241c:	80c00204 	addi	r3,r16,8
 2002420:	003fc006 	br	2002324 <_malloc_r+0x50>
 2002424:	02c08074 	movhi	r11,513
 2002428:	5aff4004 	addi	r11,r11,-768
 200242c:	8ac5883a 	add	r2,r17,r11
 2002430:	14000317 	ldw	r16,12(r2)
 2002434:	580f883a 	mov	r7,r11
 2002438:	8806d0fa 	srli	r3,r17,3
 200243c:	14006c26 	beq	r2,r16,20025f0 <_malloc_r+0x31c>
 2002440:	80c00117 	ldw	r3,4(r16)
 2002444:	00bfff04 	movi	r2,-4
 2002448:	81800317 	ldw	r6,12(r16)
 200244c:	1886703a 	and	r3,r3,r2
 2002450:	80c7883a 	add	r3,r16,r3
 2002454:	18800117 	ldw	r2,4(r3)
 2002458:	81400217 	ldw	r5,8(r16)
 200245c:	9009883a 	mov	r4,r18
 2002460:	10800054 	ori	r2,r2,1
 2002464:	18800115 	stw	r2,4(r3)
 2002468:	31400215 	stw	r5,8(r6)
 200246c:	29800315 	stw	r6,12(r5)
 2002470:	200bc340 	call	200bc34 <__malloc_unlock>
 2002474:	80c00204 	addi	r3,r16,8
 2002478:	003faa06 	br	2002324 <_malloc_r+0x50>
 200247c:	00800104 	movi	r2,4
 2002480:	10c0052e 	bgeu	r2,r3,2002498 <_malloc_r+0x1c4>
 2002484:	00800504 	movi	r2,20
 2002488:	10c07836 	bltu	r2,r3,200266c <_malloc_r+0x398>
 200248c:	198016c4 	addi	r6,r3,91
 2002490:	300490fa 	slli	r2,r6,3
 2002494:	003fbc06 	br	2002388 <_malloc_r+0xb4>
 2002498:	8804d1ba 	srli	r2,r17,6
 200249c:	11800e04 	addi	r6,r2,56
 20024a0:	300490fa 	slli	r2,r6,3
 20024a4:	003fb806 	br	2002388 <_malloc_r+0xb4>
 20024a8:	00807fc4 	movi	r2,511
 20024ac:	1140bb36 	bltu	r2,r5,200279c <_malloc_r+0x4c8>
 20024b0:	2806d0fa 	srli	r3,r5,3
 20024b4:	573ffe04 	addi	fp,r10,-8
 20024b8:	00800044 	movi	r2,1
 20024bc:	180890fa 	slli	r4,r3,3
 20024c0:	1807d0ba 	srai	r3,r3,2
 20024c4:	e1c00117 	ldw	r7,4(fp)
 20024c8:	5909883a 	add	r4,r11,r4
 20024cc:	21400217 	ldw	r5,8(r4)
 20024d0:	10c4983a 	sll	r2,r2,r3
 20024d4:	81000315 	stw	r4,12(r16)
 20024d8:	81400215 	stw	r5,8(r16)
 20024dc:	388eb03a 	or	r7,r7,r2
 20024e0:	2c000315 	stw	r16,12(r5)
 20024e4:	24000215 	stw	r16,8(r4)
 20024e8:	e1c00115 	stw	r7,4(fp)
 20024ec:	4807883a 	mov	r3,r9
 20024f0:	4800cd16 	blt	r9,zero,2002828 <_malloc_r+0x554>
 20024f4:	1807d0ba 	srai	r3,r3,2
 20024f8:	00800044 	movi	r2,1
 20024fc:	10c8983a 	sll	r4,r2,r3
 2002500:	39004436 	bltu	r7,r4,2002614 <_malloc_r+0x340>
 2002504:	21c4703a 	and	r2,r4,r7
 2002508:	10000a1e 	bne	r2,zero,2002534 <_malloc_r+0x260>
 200250c:	2109883a 	add	r4,r4,r4
 2002510:	00bfff04 	movi	r2,-4
 2002514:	4884703a 	and	r2,r9,r2
 2002518:	3906703a 	and	r3,r7,r4
 200251c:	12400104 	addi	r9,r2,4
 2002520:	1800041e 	bne	r3,zero,2002534 <_malloc_r+0x260>
 2002524:	2109883a 	add	r4,r4,r4
 2002528:	3904703a 	and	r2,r7,r4
 200252c:	4a400104 	addi	r9,r9,4
 2002530:	103ffc26 	beq	r2,zero,2002524 <_malloc_r+0x250>
 2002534:	480490fa 	slli	r2,r9,3
 2002538:	4819883a 	mov	r12,r9
 200253c:	023fff04 	movi	r8,-4
 2002540:	589b883a 	add	r13,r11,r2
 2002544:	6807883a 	mov	r3,r13
 2002548:	014003c4 	movi	r5,15
 200254c:	1c000317 	ldw	r16,12(r3)
 2002550:	1c00041e 	bne	r3,r16,2002564 <_malloc_r+0x290>
 2002554:	0000a706 	br	20027f4 <_malloc_r+0x520>
 2002558:	3000ab0e 	bge	r6,zero,2002808 <_malloc_r+0x534>
 200255c:	84000317 	ldw	r16,12(r16)
 2002560:	1c00a426 	beq	r3,r16,20027f4 <_malloc_r+0x520>
 2002564:	80800117 	ldw	r2,4(r16)
 2002568:	1204703a 	and	r2,r2,r8
 200256c:	144dc83a 	sub	r6,r2,r17
 2002570:	29bff90e 	bge	r5,r6,2002558 <_malloc_r+0x284>
 2002574:	81000317 	ldw	r4,12(r16)
 2002578:	80c00217 	ldw	r3,8(r16)
 200257c:	89400054 	ori	r5,r17,1
 2002580:	8445883a 	add	r2,r16,r17
 2002584:	20c00215 	stw	r3,8(r4)
 2002588:	19000315 	stw	r4,12(r3)
 200258c:	81400115 	stw	r5,4(r16)
 2002590:	1187883a 	add	r3,r2,r6
 2002594:	31000054 	ori	r4,r6,1
 2002598:	50800315 	stw	r2,12(r10)
 200259c:	50800215 	stw	r2,8(r10)
 20025a0:	19800015 	stw	r6,0(r3)
 20025a4:	11000115 	stw	r4,4(r2)
 20025a8:	12800215 	stw	r10,8(r2)
 20025ac:	12800315 	stw	r10,12(r2)
 20025b0:	9009883a 	mov	r4,r18
 20025b4:	200bc340 	call	200bc34 <__malloc_unlock>
 20025b8:	80c00204 	addi	r3,r16,8
 20025bc:	003f5906 	br	2002324 <_malloc_r+0x50>
 20025c0:	8109883a 	add	r4,r16,r4
 20025c4:	20800117 	ldw	r2,4(r4)
 20025c8:	80c00217 	ldw	r3,8(r16)
 20025cc:	81400317 	ldw	r5,12(r16)
 20025d0:	10800054 	ori	r2,r2,1
 20025d4:	20800115 	stw	r2,4(r4)
 20025d8:	28c00215 	stw	r3,8(r5)
 20025dc:	19400315 	stw	r5,12(r3)
 20025e0:	9009883a 	mov	r4,r18
 20025e4:	200bc340 	call	200bc34 <__malloc_unlock>
 20025e8:	80c00204 	addi	r3,r16,8
 20025ec:	003f4d06 	br	2002324 <_malloc_r+0x50>
 20025f0:	80800204 	addi	r2,r16,8
 20025f4:	14000317 	ldw	r16,12(r2)
 20025f8:	143f911e 	bne	r2,r16,2002440 <_malloc_r+0x16c>
 20025fc:	1a400084 	addi	r9,r3,2
 2002600:	003f7306 	br	20023d0 <_malloc_r+0xfc>
 2002604:	88c00054 	ori	r3,r17,1
 2002608:	8445883a 	add	r2,r16,r17
 200260c:	80c00115 	stw	r3,4(r16)
 2002610:	003fdf06 	br	2002590 <_malloc_r+0x2bc>
 2002614:	e4000217 	ldw	r16,8(fp)
 2002618:	00bfff04 	movi	r2,-4
 200261c:	80c00117 	ldw	r3,4(r16)
 2002620:	802d883a 	mov	r22,r16
 2002624:	18aa703a 	and	r21,r3,r2
 2002628:	ac401636 	bltu	r21,r17,2002684 <_malloc_r+0x3b0>
 200262c:	ac49c83a 	sub	r4,r21,r17
 2002630:	008003c4 	movi	r2,15
 2002634:	1100130e 	bge	r2,r4,2002684 <_malloc_r+0x3b0>
 2002638:	88800054 	ori	r2,r17,1
 200263c:	8447883a 	add	r3,r16,r17
 2002640:	80800115 	stw	r2,4(r16)
 2002644:	20800054 	ori	r2,r4,1
 2002648:	18800115 	stw	r2,4(r3)
 200264c:	e0c00215 	stw	r3,8(fp)
 2002650:	9009883a 	mov	r4,r18
 2002654:	200bc340 	call	200bc34 <__malloc_unlock>
 2002658:	80c00204 	addi	r3,r16,8
 200265c:	003f3106 	br	2002324 <_malloc_r+0x50>
 2002660:	39c00117 	ldw	r7,4(r7)
 2002664:	573ffe04 	addi	fp,r10,-8
 2002668:	003fa006 	br	20024ec <_malloc_r+0x218>
 200266c:	00801504 	movi	r2,84
 2002670:	10c06736 	bltu	r2,r3,2002810 <_malloc_r+0x53c>
 2002674:	8804d33a 	srli	r2,r17,12
 2002678:	11801b84 	addi	r6,r2,110
 200267c:	300490fa 	slli	r2,r6,3
 2002680:	003f4106 	br	2002388 <_malloc_r+0xb4>
 2002684:	d0a6f817 	ldw	r2,-25632(gp)
 2002688:	d0e00317 	ldw	r3,-32756(gp)
 200268c:	053fffc4 	movi	r20,-1
 2002690:	10800404 	addi	r2,r2,16
 2002694:	88a7883a 	add	r19,r17,r2
 2002698:	1d000326 	beq	r3,r20,20026a8 <_malloc_r+0x3d4>
 200269c:	98c3ffc4 	addi	r3,r19,4095
 20026a0:	00bc0004 	movi	r2,-4096
 20026a4:	18a6703a 	and	r19,r3,r2
 20026a8:	9009883a 	mov	r4,r18
 20026ac:	980b883a 	mov	r5,r19
 20026b0:	2002e2c0 	call	2002e2c <_sbrk_r>
 20026b4:	1009883a 	mov	r4,r2
 20026b8:	15000426 	beq	r2,r20,20026cc <_malloc_r+0x3f8>
 20026bc:	854b883a 	add	r5,r16,r21
 20026c0:	1029883a 	mov	r20,r2
 20026c4:	11405a2e 	bgeu	r2,r5,2002830 <_malloc_r+0x55c>
 20026c8:	87000c26 	beq	r16,fp,20026fc <_malloc_r+0x428>
 20026cc:	e4000217 	ldw	r16,8(fp)
 20026d0:	80c00117 	ldw	r3,4(r16)
 20026d4:	00bfff04 	movi	r2,-4
 20026d8:	1884703a 	and	r2,r3,r2
 20026dc:	14400336 	bltu	r2,r17,20026ec <_malloc_r+0x418>
 20026e0:	1449c83a 	sub	r4,r2,r17
 20026e4:	008003c4 	movi	r2,15
 20026e8:	113fd316 	blt	r2,r4,2002638 <_malloc_r+0x364>
 20026ec:	9009883a 	mov	r4,r18
 20026f0:	200bc340 	call	200bc34 <__malloc_unlock>
 20026f4:	0007883a 	mov	r3,zero
 20026f8:	003f0a06 	br	2002324 <_malloc_r+0x50>
 20026fc:	05c08074 	movhi	r23,513
 2002700:	bdcc1704 	addi	r23,r23,12380
 2002704:	b8800017 	ldw	r2,0(r23)
 2002708:	988d883a 	add	r6,r19,r2
 200270c:	b9800015 	stw	r6,0(r23)
 2002710:	d0e00317 	ldw	r3,-32756(gp)
 2002714:	00bfffc4 	movi	r2,-1
 2002718:	18808e26 	beq	r3,r2,2002954 <_malloc_r+0x680>
 200271c:	2145c83a 	sub	r2,r4,r5
 2002720:	3085883a 	add	r2,r6,r2
 2002724:	b8800015 	stw	r2,0(r23)
 2002728:	20c001cc 	andi	r3,r4,7
 200272c:	18005f1e 	bne	r3,zero,20028ac <_malloc_r+0x5d8>
 2002730:	000b883a 	mov	r5,zero
 2002734:	a4c5883a 	add	r2,r20,r19
 2002738:	1083ffcc 	andi	r2,r2,4095
 200273c:	00c40004 	movi	r3,4096
 2002740:	1887c83a 	sub	r3,r3,r2
 2002744:	28e7883a 	add	r19,r5,r3
 2002748:	9009883a 	mov	r4,r18
 200274c:	980b883a 	mov	r5,r19
 2002750:	2002e2c0 	call	2002e2c <_sbrk_r>
 2002754:	1007883a 	mov	r3,r2
 2002758:	00bfffc4 	movi	r2,-1
 200275c:	18807a26 	beq	r3,r2,2002948 <_malloc_r+0x674>
 2002760:	1d05c83a 	sub	r2,r3,r20
 2002764:	9885883a 	add	r2,r19,r2
 2002768:	10c00054 	ori	r3,r2,1
 200276c:	b8800017 	ldw	r2,0(r23)
 2002770:	a021883a 	mov	r16,r20
 2002774:	a0c00115 	stw	r3,4(r20)
 2002778:	9885883a 	add	r2,r19,r2
 200277c:	b8800015 	stw	r2,0(r23)
 2002780:	e5000215 	stw	r20,8(fp)
 2002784:	b7003626 	beq	r22,fp,2002860 <_malloc_r+0x58c>
 2002788:	018003c4 	movi	r6,15
 200278c:	35404b36 	bltu	r6,r21,20028bc <_malloc_r+0x5e8>
 2002790:	00800044 	movi	r2,1
 2002794:	a0800115 	stw	r2,4(r20)
 2002798:	003fcd06 	br	20026d0 <_malloc_r+0x3fc>
 200279c:	2808d27a 	srli	r4,r5,9
 20027a0:	2000371e 	bne	r4,zero,2002880 <_malloc_r+0x5ac>
 20027a4:	2808d0fa 	srli	r4,r5,3
 20027a8:	200690fa 	slli	r3,r4,3
 20027ac:	1ad1883a 	add	r8,r3,r11
 20027b0:	41800217 	ldw	r6,8(r8)
 20027b4:	41805b26 	beq	r8,r6,2002924 <_malloc_r+0x650>
 20027b8:	30800117 	ldw	r2,4(r6)
 20027bc:	00ffff04 	movi	r3,-4
 20027c0:	10c4703a 	and	r2,r2,r3
 20027c4:	2880022e 	bgeu	r5,r2,20027d0 <_malloc_r+0x4fc>
 20027c8:	31800217 	ldw	r6,8(r6)
 20027cc:	41bffa1e 	bne	r8,r6,20027b8 <_malloc_r+0x4e4>
 20027d0:	32000317 	ldw	r8,12(r6)
 20027d4:	39c00117 	ldw	r7,4(r7)
 20027d8:	82000315 	stw	r8,12(r16)
 20027dc:	81800215 	stw	r6,8(r16)
 20027e0:	07008074 	movhi	fp,513
 20027e4:	e73f4004 	addi	fp,fp,-768
 20027e8:	34000315 	stw	r16,12(r6)
 20027ec:	44000215 	stw	r16,8(r8)
 20027f0:	003f3e06 	br	20024ec <_malloc_r+0x218>
 20027f4:	63000044 	addi	r12,r12,1
 20027f8:	608000cc 	andi	r2,r12,3
 20027fc:	10005d26 	beq	r2,zero,2002974 <_malloc_r+0x6a0>
 2002800:	18c00204 	addi	r3,r3,8
 2002804:	003f5106 	br	200254c <_malloc_r+0x278>
 2002808:	8089883a 	add	r4,r16,r2
 200280c:	003f6d06 	br	20025c4 <_malloc_r+0x2f0>
 2002810:	00805504 	movi	r2,340
 2002814:	10c02036 	bltu	r2,r3,2002898 <_malloc_r+0x5c4>
 2002818:	8804d3fa 	srli	r2,r17,15
 200281c:	11801dc4 	addi	r6,r2,119
 2002820:	300490fa 	slli	r2,r6,3
 2002824:	003ed806 	br	2002388 <_malloc_r+0xb4>
 2002828:	48c000c4 	addi	r3,r9,3
 200282c:	003f3106 	br	20024f4 <_malloc_r+0x220>
 2002830:	05c08074 	movhi	r23,513
 2002834:	bdcc1704 	addi	r23,r23,12380
 2002838:	b8800017 	ldw	r2,0(r23)
 200283c:	988d883a 	add	r6,r19,r2
 2002840:	b9800015 	stw	r6,0(r23)
 2002844:	293fb21e 	bne	r5,r4,2002710 <_malloc_r+0x43c>
 2002848:	2083ffcc 	andi	r2,r4,4095
 200284c:	103fb01e 	bne	r2,zero,2002710 <_malloc_r+0x43c>
 2002850:	e4000217 	ldw	r16,8(fp)
 2002854:	9d45883a 	add	r2,r19,r21
 2002858:	10800054 	ori	r2,r2,1
 200285c:	80800115 	stw	r2,4(r16)
 2002860:	b8c00017 	ldw	r3,0(r23)
 2002864:	d0a6f917 	ldw	r2,-25628(gp)
 2002868:	10c0012e 	bgeu	r2,r3,2002870 <_malloc_r+0x59c>
 200286c:	d0e6f915 	stw	r3,-25628(gp)
 2002870:	d0a6fa17 	ldw	r2,-25624(gp)
 2002874:	10ff962e 	bgeu	r2,r3,20026d0 <_malloc_r+0x3fc>
 2002878:	d0e6fa15 	stw	r3,-25624(gp)
 200287c:	003f9406 	br	20026d0 <_malloc_r+0x3fc>
 2002880:	00800104 	movi	r2,4
 2002884:	11001e36 	bltu	r2,r4,2002900 <_malloc_r+0x62c>
 2002888:	2804d1ba 	srli	r2,r5,6
 200288c:	11000e04 	addi	r4,r2,56
 2002890:	200690fa 	slli	r3,r4,3
 2002894:	003fc506 	br	20027ac <_malloc_r+0x4d8>
 2002898:	00815504 	movi	r2,1364
 200289c:	10c01d2e 	bgeu	r2,r3,2002914 <_malloc_r+0x640>
 20028a0:	01801f84 	movi	r6,126
 20028a4:	0080fc04 	movi	r2,1008
 20028a8:	003eb706 	br	2002388 <_malloc_r+0xb4>
 20028ac:	00800204 	movi	r2,8
 20028b0:	10cbc83a 	sub	r5,r2,r3
 20028b4:	2169883a 	add	r20,r4,r5
 20028b8:	003f9e06 	br	2002734 <_malloc_r+0x460>
 20028bc:	00bffe04 	movi	r2,-8
 20028c0:	a93ffd04 	addi	r4,r21,-12
 20028c4:	2088703a 	and	r4,r4,r2
 20028c8:	b10b883a 	add	r5,r22,r4
 20028cc:	00c00144 	movi	r3,5
 20028d0:	28c00215 	stw	r3,8(r5)
 20028d4:	28c00115 	stw	r3,4(r5)
 20028d8:	b0800117 	ldw	r2,4(r22)
 20028dc:	1080004c 	andi	r2,r2,1
 20028e0:	2084b03a 	or	r2,r4,r2
 20028e4:	b0800115 	stw	r2,4(r22)
 20028e8:	313fdd2e 	bgeu	r6,r4,2002860 <_malloc_r+0x58c>
 20028ec:	b1400204 	addi	r5,r22,8
 20028f0:	9009883a 	mov	r4,r18
 20028f4:	200708c0 	call	200708c <_free_r>
 20028f8:	e4000217 	ldw	r16,8(fp)
 20028fc:	003fd806 	br	2002860 <_malloc_r+0x58c>
 2002900:	00800504 	movi	r2,20
 2002904:	11001536 	bltu	r2,r4,200295c <_malloc_r+0x688>
 2002908:	210016c4 	addi	r4,r4,91
 200290c:	200690fa 	slli	r3,r4,3
 2002910:	003fa606 	br	20027ac <_malloc_r+0x4d8>
 2002914:	8804d4ba 	srli	r2,r17,18
 2002918:	11801f04 	addi	r6,r2,124
 200291c:	300490fa 	slli	r2,r6,3
 2002920:	003e9906 	br	2002388 <_malloc_r+0xb4>
 2002924:	2009d0ba 	srai	r4,r4,2
 2002928:	01408074 	movhi	r5,513
 200292c:	297f4004 	addi	r5,r5,-768
 2002930:	00c00044 	movi	r3,1
 2002934:	28800117 	ldw	r2,4(r5)
 2002938:	1906983a 	sll	r3,r3,r4
 200293c:	10c4b03a 	or	r2,r2,r3
 2002940:	28800115 	stw	r2,4(r5)
 2002944:	003fa306 	br	20027d4 <_malloc_r+0x500>
 2002948:	0027883a 	mov	r19,zero
 200294c:	00c00044 	movi	r3,1
 2002950:	003f8606 	br	200276c <_malloc_r+0x498>
 2002954:	d1200315 	stw	r4,-32756(gp)
 2002958:	003f7306 	br	2002728 <_malloc_r+0x454>
 200295c:	00801504 	movi	r2,84
 2002960:	11001936 	bltu	r2,r4,20029c8 <_malloc_r+0x6f4>
 2002964:	2804d33a 	srli	r2,r5,12
 2002968:	11001b84 	addi	r4,r2,110
 200296c:	200690fa 	slli	r3,r4,3
 2002970:	003f8e06 	br	20027ac <_malloc_r+0x4d8>
 2002974:	480b883a 	mov	r5,r9
 2002978:	6807883a 	mov	r3,r13
 200297c:	288000cc 	andi	r2,r5,3
 2002980:	18fffe04 	addi	r3,r3,-8
 2002984:	297fffc4 	addi	r5,r5,-1
 2002988:	10001526 	beq	r2,zero,20029e0 <_malloc_r+0x70c>
 200298c:	18800217 	ldw	r2,8(r3)
 2002990:	10fffa26 	beq	r2,r3,200297c <_malloc_r+0x6a8>
 2002994:	2109883a 	add	r4,r4,r4
 2002998:	393f1e36 	bltu	r7,r4,2002614 <_malloc_r+0x340>
 200299c:	203f1d26 	beq	r4,zero,2002614 <_malloc_r+0x340>
 20029a0:	21c4703a 	and	r2,r4,r7
 20029a4:	10000226 	beq	r2,zero,20029b0 <_malloc_r+0x6dc>
 20029a8:	6013883a 	mov	r9,r12
 20029ac:	003ee106 	br	2002534 <_malloc_r+0x260>
 20029b0:	2109883a 	add	r4,r4,r4
 20029b4:	3904703a 	and	r2,r7,r4
 20029b8:	63000104 	addi	r12,r12,4
 20029bc:	103ffc26 	beq	r2,zero,20029b0 <_malloc_r+0x6dc>
 20029c0:	6013883a 	mov	r9,r12
 20029c4:	003edb06 	br	2002534 <_malloc_r+0x260>
 20029c8:	00805504 	movi	r2,340
 20029cc:	11000836 	bltu	r2,r4,20029f0 <_malloc_r+0x71c>
 20029d0:	2804d3fa 	srli	r2,r5,15
 20029d4:	11001dc4 	addi	r4,r2,119
 20029d8:	200690fa 	slli	r3,r4,3
 20029dc:	003f7306 	br	20027ac <_malloc_r+0x4d8>
 20029e0:	0104303a 	nor	r2,zero,r4
 20029e4:	388e703a 	and	r7,r7,r2
 20029e8:	e1c00115 	stw	r7,4(fp)
 20029ec:	003fe906 	br	2002994 <_malloc_r+0x6c0>
 20029f0:	00815504 	movi	r2,1364
 20029f4:	1100032e 	bgeu	r2,r4,2002a04 <_malloc_r+0x730>
 20029f8:	01001f84 	movi	r4,126
 20029fc:	00c0fc04 	movi	r3,1008
 2002a00:	003f6a06 	br	20027ac <_malloc_r+0x4d8>
 2002a04:	2804d4ba 	srli	r2,r5,18
 2002a08:	11001f04 	addi	r4,r2,124
 2002a0c:	200690fa 	slli	r3,r4,3
 2002a10:	003f6606 	br	20027ac <_malloc_r+0x4d8>

02002a14 <_open_r>:
 2002a14:	defffd04 	addi	sp,sp,-12
 2002a18:	dc000015 	stw	r16,0(sp)
 2002a1c:	04008074 	movhi	r16,513
 2002a20:	840c0604 	addi	r16,r16,12312
 2002a24:	dc400115 	stw	r17,4(sp)
 2002a28:	80000015 	stw	zero,0(r16)
 2002a2c:	2023883a 	mov	r17,r4
 2002a30:	2809883a 	mov	r4,r5
 2002a34:	300b883a 	mov	r5,r6
 2002a38:	380d883a 	mov	r6,r7
 2002a3c:	dfc00215 	stw	ra,8(sp)
 2002a40:	200bd300 	call	200bd30 <open>
 2002a44:	1007883a 	mov	r3,r2
 2002a48:	00bfffc4 	movi	r2,-1
 2002a4c:	18800626 	beq	r3,r2,2002a68 <_open_r+0x54>
 2002a50:	1805883a 	mov	r2,r3
 2002a54:	dfc00217 	ldw	ra,8(sp)
 2002a58:	dc400117 	ldw	r17,4(sp)
 2002a5c:	dc000017 	ldw	r16,0(sp)
 2002a60:	dec00304 	addi	sp,sp,12
 2002a64:	f800283a 	ret
 2002a68:	80800017 	ldw	r2,0(r16)
 2002a6c:	103ff826 	beq	r2,zero,2002a50 <_open_r+0x3c>
 2002a70:	88800015 	stw	r2,0(r17)
 2002a74:	1805883a 	mov	r2,r3
 2002a78:	dfc00217 	ldw	ra,8(sp)
 2002a7c:	dc400117 	ldw	r17,4(sp)
 2002a80:	dc000017 	ldw	r16,0(sp)
 2002a84:	dec00304 	addi	sp,sp,12
 2002a88:	f800283a 	ret

02002a8c <printf>:
 2002a8c:	defffb04 	addi	sp,sp,-20
 2002a90:	dfc00115 	stw	ra,4(sp)
 2002a94:	d9400215 	stw	r5,8(sp)
 2002a98:	d9800315 	stw	r6,12(sp)
 2002a9c:	d9c00415 	stw	r7,16(sp)
 2002aa0:	00808074 	movhi	r2,513
 2002aa4:	10850f04 	addi	r2,r2,5180
 2002aa8:	10c00017 	ldw	r3,0(r2)
 2002aac:	200b883a 	mov	r5,r4
 2002ab0:	d8800204 	addi	r2,sp,8
 2002ab4:	19000217 	ldw	r4,8(r3)
 2002ab8:	100d883a 	mov	r6,r2
 2002abc:	d8800015 	stw	r2,0(sp)
 2002ac0:	2004fbc0 	call	2004fbc <__vfprintf_internal>
 2002ac4:	dfc00117 	ldw	ra,4(sp)
 2002ac8:	dec00504 	addi	sp,sp,20
 2002acc:	f800283a 	ret

02002ad0 <_printf_r>:
 2002ad0:	defffc04 	addi	sp,sp,-16
 2002ad4:	dfc00115 	stw	ra,4(sp)
 2002ad8:	d9800215 	stw	r6,8(sp)
 2002adc:	d9c00315 	stw	r7,12(sp)
 2002ae0:	280d883a 	mov	r6,r5
 2002ae4:	21400217 	ldw	r5,8(r4)
 2002ae8:	d8c00204 	addi	r3,sp,8
 2002aec:	180f883a 	mov	r7,r3
 2002af0:	d8c00015 	stw	r3,0(sp)
 2002af4:	20031100 	call	2003110 <___vfprintf_internal_r>
 2002af8:	dfc00117 	ldw	ra,4(sp)
 2002afc:	dec00404 	addi	sp,sp,16
 2002b00:	f800283a 	ret

02002b04 <_puts_r>:
 2002b04:	defff604 	addi	sp,sp,-40
 2002b08:	dc400715 	stw	r17,28(sp)
 2002b0c:	2023883a 	mov	r17,r4
 2002b10:	2809883a 	mov	r4,r5
 2002b14:	dfc00915 	stw	ra,36(sp)
 2002b18:	dcc00815 	stw	r19,32(sp)
 2002b1c:	2827883a 	mov	r19,r5
 2002b20:	2002fe80 	call	2002fe8 <strlen>
 2002b24:	89400217 	ldw	r5,8(r17)
 2002b28:	00c08074 	movhi	r3,513
 2002b2c:	18fd0a04 	addi	r3,r3,-3032
 2002b30:	01c00044 	movi	r7,1
 2002b34:	12000044 	addi	r8,r2,1
 2002b38:	d8c00515 	stw	r3,20(sp)
 2002b3c:	d9c00615 	stw	r7,24(sp)
 2002b40:	d8c00304 	addi	r3,sp,12
 2002b44:	01c00084 	movi	r7,2
 2002b48:	8809883a 	mov	r4,r17
 2002b4c:	d80d883a 	mov	r6,sp
 2002b50:	d8c00015 	stw	r3,0(sp)
 2002b54:	dcc00315 	stw	r19,12(sp)
 2002b58:	da000215 	stw	r8,8(sp)
 2002b5c:	d9c00115 	stw	r7,4(sp)
 2002b60:	d8800415 	stw	r2,16(sp)
 2002b64:	20073a00 	call	20073a0 <__sfvwrite_r>
 2002b68:	00ffffc4 	movi	r3,-1
 2002b6c:	10000626 	beq	r2,zero,2002b88 <_puts_r+0x84>
 2002b70:	1805883a 	mov	r2,r3
 2002b74:	dfc00917 	ldw	ra,36(sp)
 2002b78:	dcc00817 	ldw	r19,32(sp)
 2002b7c:	dc400717 	ldw	r17,28(sp)
 2002b80:	dec00a04 	addi	sp,sp,40
 2002b84:	f800283a 	ret
 2002b88:	00c00284 	movi	r3,10
 2002b8c:	1805883a 	mov	r2,r3
 2002b90:	dfc00917 	ldw	ra,36(sp)
 2002b94:	dcc00817 	ldw	r19,32(sp)
 2002b98:	dc400717 	ldw	r17,28(sp)
 2002b9c:	dec00a04 	addi	sp,sp,40
 2002ba0:	f800283a 	ret

02002ba4 <puts>:
 2002ba4:	00808074 	movhi	r2,513
 2002ba8:	10850f04 	addi	r2,r2,5180
 2002bac:	200b883a 	mov	r5,r4
 2002bb0:	11000017 	ldw	r4,0(r2)
 2002bb4:	2002b041 	jmpi	2002b04 <_puts_r>

02002bb8 <srand>:
 2002bb8:	00808074 	movhi	r2,513
 2002bbc:	10850f04 	addi	r2,r2,5180
 2002bc0:	11400017 	ldw	r5,0(r2)
 2002bc4:	0007883a 	mov	r3,zero
 2002bc8:	28c02a15 	stw	r3,168(r5)
 2002bcc:	29002915 	stw	r4,164(r5)
 2002bd0:	f800283a 	ret

02002bd4 <rand>:
 2002bd4:	defffe04 	addi	sp,sp,-8
 2002bd8:	00808074 	movhi	r2,513
 2002bdc:	10850f04 	addi	r2,r2,5180
 2002be0:	dc000015 	stw	r16,0(sp)
 2002be4:	14000017 	ldw	r16,0(r2)
 2002be8:	dfc00115 	stw	ra,4(sp)
 2002bec:	00932574 	movhi	r2,19605
 2002bf0:	109fcb44 	addi	r2,r2,32557
 2002bf4:	82002917 	ldw	r8,164(r16)
 2002bf8:	82402a17 	ldw	r9,168(r16)
 2002bfc:	00d614b4 	movhi	r3,22610
 2002c00:	18fd0b44 	addi	r3,r3,-3027
 2002c04:	4009883a 	mov	r4,r8
 2002c08:	180f883a 	mov	r7,r3
 2002c0c:	100d883a 	mov	r6,r2
 2002c10:	480b883a 	mov	r5,r9
 2002c14:	20011e40 	call	20011e4 <__muldi3>
 2002c18:	02000044 	movi	r8,1
 2002c1c:	1209883a 	add	r4,r2,r8
 2002c20:	2095803a 	cmpltu	r10,r4,r2
 2002c24:	50d5883a 	add	r10,r10,r3
 2002c28:	81002915 	stw	r4,164(r16)
 2002c2c:	01200034 	movhi	r4,32768
 2002c30:	213fffc4 	addi	r4,r4,-1
 2002c34:	2284703a 	and	r2,r4,r10
 2002c38:	82802a15 	stw	r10,168(r16)
 2002c3c:	dfc00117 	ldw	ra,4(sp)
 2002c40:	dc000017 	ldw	r16,0(sp)
 2002c44:	dec00204 	addi	sp,sp,8
 2002c48:	f800283a 	ret

02002c4c <__srefill_r>:
 2002c4c:	defffd04 	addi	sp,sp,-12
 2002c50:	dc400115 	stw	r17,4(sp)
 2002c54:	dc000015 	stw	r16,0(sp)
 2002c58:	dfc00215 	stw	ra,8(sp)
 2002c5c:	2023883a 	mov	r17,r4
 2002c60:	2821883a 	mov	r16,r5
 2002c64:	20000226 	beq	r4,zero,2002c70 <__srefill_r+0x24>
 2002c68:	20800e17 	ldw	r2,56(r4)
 2002c6c:	10004126 	beq	r2,zero,2002d74 <__srefill_r+0x128>
 2002c70:	80c0030b 	ldhu	r3,12(r16)
 2002c74:	80000115 	stw	zero,4(r16)
 2002c78:	1880080c 	andi	r2,r3,32
 2002c7c:	1000361e 	bne	r2,zero,2002d58 <__srefill_r+0x10c>
 2002c80:	1880010c 	andi	r2,r3,4
 2002c84:	1000211e 	bne	r2,zero,2002d0c <__srefill_r+0xc0>
 2002c88:	1880040c 	andi	r2,r3,16
 2002c8c:	10005026 	beq	r2,zero,2002dd0 <__srefill_r+0x184>
 2002c90:	1880020c 	andi	r2,r3,8
 2002c94:	1000541e 	bne	r2,zero,2002de8 <__srefill_r+0x19c>
 2002c98:	8080030b 	ldhu	r2,12(r16)
 2002c9c:	10800114 	ori	r2,r2,4
 2002ca0:	8080030d 	sth	r2,12(r16)
 2002ca4:	80800417 	ldw	r2,16(r16)
 2002ca8:	10004526 	beq	r2,zero,2002dc0 <__srefill_r+0x174>
 2002cac:	8080030b 	ldhu	r2,12(r16)
 2002cb0:	108000cc 	andi	r2,r2,3
 2002cb4:	1000361e 	bne	r2,zero,2002d90 <__srefill_r+0x144>
 2002cb8:	81800417 	ldw	r6,16(r16)
 2002cbc:	80c00817 	ldw	r3,32(r16)
 2002cc0:	81400717 	ldw	r5,28(r16)
 2002cc4:	81c00517 	ldw	r7,20(r16)
 2002cc8:	8809883a 	mov	r4,r17
 2002ccc:	81800015 	stw	r6,0(r16)
 2002cd0:	183ee83a 	callr	r3
 2002cd4:	80c0030b 	ldhu	r3,12(r16)
 2002cd8:	1009883a 	mov	r4,r2
 2002cdc:	80800115 	stw	r2,4(r16)
 2002ce0:	00b7ffc4 	movi	r2,-8193
 2002ce4:	1884703a 	and	r2,r3,r2
 2002ce8:	8080030d 	sth	r2,12(r16)
 2002cec:	0100230e 	bge	zero,r4,2002d7c <__srefill_r+0x130>
 2002cf0:	0009883a 	mov	r4,zero
 2002cf4:	2005883a 	mov	r2,r4
 2002cf8:	dfc00217 	ldw	ra,8(sp)
 2002cfc:	dc400117 	ldw	r17,4(sp)
 2002d00:	dc000017 	ldw	r16,0(sp)
 2002d04:	dec00304 	addi	sp,sp,12
 2002d08:	f800283a 	ret
 2002d0c:	81400c17 	ldw	r5,48(r16)
 2002d10:	283fe426 	beq	r5,zero,2002ca4 <__srefill_r+0x58>
 2002d14:	80801004 	addi	r2,r16,64
 2002d18:	28800226 	beq	r5,r2,2002d24 <__srefill_r+0xd8>
 2002d1c:	8809883a 	mov	r4,r17
 2002d20:	200708c0 	call	200708c <_free_r>
 2002d24:	80800f17 	ldw	r2,60(r16)
 2002d28:	80000c15 	stw	zero,48(r16)
 2002d2c:	80800115 	stw	r2,4(r16)
 2002d30:	103fdc26 	beq	r2,zero,2002ca4 <__srefill_r+0x58>
 2002d34:	80800e17 	ldw	r2,56(r16)
 2002d38:	0009883a 	mov	r4,zero
 2002d3c:	80800015 	stw	r2,0(r16)
 2002d40:	2005883a 	mov	r2,r4
 2002d44:	dfc00217 	ldw	ra,8(sp)
 2002d48:	dc400117 	ldw	r17,4(sp)
 2002d4c:	dc000017 	ldw	r16,0(sp)
 2002d50:	dec00304 	addi	sp,sp,12
 2002d54:	f800283a 	ret
 2002d58:	013fffc4 	movi	r4,-1
 2002d5c:	2005883a 	mov	r2,r4
 2002d60:	dfc00217 	ldw	ra,8(sp)
 2002d64:	dc400117 	ldw	r17,4(sp)
 2002d68:	dc000017 	ldw	r16,0(sp)
 2002d6c:	dec00304 	addi	sp,sp,12
 2002d70:	f800283a 	ret
 2002d74:	2006c680 	call	2006c68 <__sinit>
 2002d78:	003fbd06 	br	2002c70 <__srefill_r+0x24>
 2002d7c:	20000b1e 	bne	r4,zero,2002dac <__srefill_r+0x160>
 2002d80:	10800814 	ori	r2,r2,32
 2002d84:	013fffc4 	movi	r4,-1
 2002d88:	8080030d 	sth	r2,12(r16)
 2002d8c:	003fd906 	br	2002cf4 <__srefill_r+0xa8>
 2002d90:	00808074 	movhi	r2,513
 2002d94:	10851004 	addi	r2,r2,5184
 2002d98:	11000017 	ldw	r4,0(r2)
 2002d9c:	01408034 	movhi	r5,512
 2002da0:	294b8404 	addi	r5,r5,11792
 2002da4:	20079040 	call	2007904 <_fwalk>
 2002da8:	003fc306 	br	2002cb8 <__srefill_r+0x6c>
 2002dac:	10801014 	ori	r2,r2,64
 2002db0:	013fffc4 	movi	r4,-1
 2002db4:	8080030d 	sth	r2,12(r16)
 2002db8:	80000115 	stw	zero,4(r16)
 2002dbc:	003fcd06 	br	2002cf4 <__srefill_r+0xa8>
 2002dc0:	8809883a 	mov	r4,r17
 2002dc4:	800b883a 	mov	r5,r16
 2002dc8:	20021400 	call	2002140 <__smakebuf_r>
 2002dcc:	003fb706 	br	2002cac <__srefill_r+0x60>
 2002dd0:	18c01014 	ori	r3,r3,64
 2002dd4:	00800244 	movi	r2,9
 2002dd8:	013fffc4 	movi	r4,-1
 2002ddc:	88800015 	stw	r2,0(r17)
 2002de0:	80c0030d 	sth	r3,12(r16)
 2002de4:	003fc306 	br	2002cf4 <__srefill_r+0xa8>
 2002de8:	8809883a 	mov	r4,r17
 2002dec:	800b883a 	mov	r5,r16
 2002df0:	20069d00 	call	20069d0 <_fflush_r>
 2002df4:	103fd81e 	bne	r2,zero,2002d58 <__srefill_r+0x10c>
 2002df8:	8080030b 	ldhu	r2,12(r16)
 2002dfc:	80000215 	stw	zero,8(r16)
 2002e00:	80000615 	stw	zero,24(r16)
 2002e04:	10bffdcc 	andi	r2,r2,65527
 2002e08:	8080030d 	sth	r2,12(r16)
 2002e0c:	003fa206 	br	2002c98 <__srefill_r+0x4c>

02002e10 <lflush>:
 2002e10:	20c0030b 	ldhu	r3,12(r4)
 2002e14:	01400244 	movi	r5,9
 2002e18:	0005883a 	mov	r2,zero
 2002e1c:	18c0024c 	andi	r3,r3,9
 2002e20:	19400126 	beq	r3,r5,2002e28 <lflush+0x18>
 2002e24:	f800283a 	ret
 2002e28:	2006bcc1 	jmpi	2006bcc <fflush>

02002e2c <_sbrk_r>:
 2002e2c:	defffd04 	addi	sp,sp,-12
 2002e30:	dc000015 	stw	r16,0(sp)
 2002e34:	04008074 	movhi	r16,513
 2002e38:	840c0604 	addi	r16,r16,12312
 2002e3c:	dc400115 	stw	r17,4(sp)
 2002e40:	80000015 	stw	zero,0(r16)
 2002e44:	2023883a 	mov	r17,r4
 2002e48:	2809883a 	mov	r4,r5
 2002e4c:	dfc00215 	stw	ra,8(sp)
 2002e50:	200c0f80 	call	200c0f8 <sbrk>
 2002e54:	1007883a 	mov	r3,r2
 2002e58:	00bfffc4 	movi	r2,-1
 2002e5c:	18800626 	beq	r3,r2,2002e78 <_sbrk_r+0x4c>
 2002e60:	1805883a 	mov	r2,r3
 2002e64:	dfc00217 	ldw	ra,8(sp)
 2002e68:	dc400117 	ldw	r17,4(sp)
 2002e6c:	dc000017 	ldw	r16,0(sp)
 2002e70:	dec00304 	addi	sp,sp,12
 2002e74:	f800283a 	ret
 2002e78:	80800017 	ldw	r2,0(r16)
 2002e7c:	103ff826 	beq	r2,zero,2002e60 <_sbrk_r+0x34>
 2002e80:	88800015 	stw	r2,0(r17)
 2002e84:	1805883a 	mov	r2,r3
 2002e88:	dfc00217 	ldw	ra,8(sp)
 2002e8c:	dc400117 	ldw	r17,4(sp)
 2002e90:	dc000017 	ldw	r16,0(sp)
 2002e94:	dec00304 	addi	sp,sp,12
 2002e98:	f800283a 	ret

02002e9c <__sclose>:
 2002e9c:	2940038f 	ldh	r5,14(r5)
 2002ea0:	20051941 	jmpi	2005194 <_close_r>

02002ea4 <__sseek>:
 2002ea4:	defffe04 	addi	sp,sp,-8
 2002ea8:	dc000015 	stw	r16,0(sp)
 2002eac:	2821883a 	mov	r16,r5
 2002eb0:	2940038f 	ldh	r5,14(r5)
 2002eb4:	dfc00115 	stw	ra,4(sp)
 2002eb8:	2007b640 	call	2007b64 <_lseek_r>
 2002ebc:	1007883a 	mov	r3,r2
 2002ec0:	00bfffc4 	movi	r2,-1
 2002ec4:	18800926 	beq	r3,r2,2002eec <__sseek+0x48>
 2002ec8:	8080030b 	ldhu	r2,12(r16)
 2002ecc:	80c01415 	stw	r3,80(r16)
 2002ed0:	10840014 	ori	r2,r2,4096
 2002ed4:	8080030d 	sth	r2,12(r16)
 2002ed8:	1805883a 	mov	r2,r3
 2002edc:	dfc00117 	ldw	ra,4(sp)
 2002ee0:	dc000017 	ldw	r16,0(sp)
 2002ee4:	dec00204 	addi	sp,sp,8
 2002ee8:	f800283a 	ret
 2002eec:	8080030b 	ldhu	r2,12(r16)
 2002ef0:	10bbffcc 	andi	r2,r2,61439
 2002ef4:	8080030d 	sth	r2,12(r16)
 2002ef8:	1805883a 	mov	r2,r3
 2002efc:	dfc00117 	ldw	ra,4(sp)
 2002f00:	dc000017 	ldw	r16,0(sp)
 2002f04:	dec00204 	addi	sp,sp,8
 2002f08:	f800283a 	ret

02002f0c <__swrite>:
 2002f0c:	2880030b 	ldhu	r2,12(r5)
 2002f10:	defffb04 	addi	sp,sp,-20
 2002f14:	dcc00315 	stw	r19,12(sp)
 2002f18:	1080400c 	andi	r2,r2,256
 2002f1c:	dc800215 	stw	r18,8(sp)
 2002f20:	dc400115 	stw	r17,4(sp)
 2002f24:	dc000015 	stw	r16,0(sp)
 2002f28:	3027883a 	mov	r19,r6
 2002f2c:	3825883a 	mov	r18,r7
 2002f30:	dfc00415 	stw	ra,16(sp)
 2002f34:	2821883a 	mov	r16,r5
 2002f38:	000d883a 	mov	r6,zero
 2002f3c:	01c00084 	movi	r7,2
 2002f40:	2023883a 	mov	r17,r4
 2002f44:	10000226 	beq	r2,zero,2002f50 <__swrite+0x44>
 2002f48:	2940038f 	ldh	r5,14(r5)
 2002f4c:	2007b640 	call	2007b64 <_lseek_r>
 2002f50:	8080030b 	ldhu	r2,12(r16)
 2002f54:	8140038f 	ldh	r5,14(r16)
 2002f58:	8809883a 	mov	r4,r17
 2002f5c:	10bbffcc 	andi	r2,r2,61439
 2002f60:	980d883a 	mov	r6,r19
 2002f64:	900f883a 	mov	r7,r18
 2002f68:	8080030d 	sth	r2,12(r16)
 2002f6c:	dfc00417 	ldw	ra,16(sp)
 2002f70:	dcc00317 	ldw	r19,12(sp)
 2002f74:	dc800217 	ldw	r18,8(sp)
 2002f78:	dc400117 	ldw	r17,4(sp)
 2002f7c:	dc000017 	ldw	r16,0(sp)
 2002f80:	dec00504 	addi	sp,sp,20
 2002f84:	2004fe01 	jmpi	2004fe0 <_write_r>

02002f88 <__sread>:
 2002f88:	defffe04 	addi	sp,sp,-8
 2002f8c:	dc000015 	stw	r16,0(sp)
 2002f90:	2821883a 	mov	r16,r5
 2002f94:	2940038f 	ldh	r5,14(r5)
 2002f98:	dfc00115 	stw	ra,4(sp)
 2002f9c:	2008ecc0 	call	2008ecc <_read_r>
 2002fa0:	1007883a 	mov	r3,r2
 2002fa4:	10000816 	blt	r2,zero,2002fc8 <__sread+0x40>
 2002fa8:	80801417 	ldw	r2,80(r16)
 2002fac:	10c5883a 	add	r2,r2,r3
 2002fb0:	80801415 	stw	r2,80(r16)
 2002fb4:	1805883a 	mov	r2,r3
 2002fb8:	dfc00117 	ldw	ra,4(sp)
 2002fbc:	dc000017 	ldw	r16,0(sp)
 2002fc0:	dec00204 	addi	sp,sp,8
 2002fc4:	f800283a 	ret
 2002fc8:	8080030b 	ldhu	r2,12(r16)
 2002fcc:	10bbffcc 	andi	r2,r2,61439
 2002fd0:	8080030d 	sth	r2,12(r16)
 2002fd4:	1805883a 	mov	r2,r3
 2002fd8:	dfc00117 	ldw	ra,4(sp)
 2002fdc:	dc000017 	ldw	r16,0(sp)
 2002fe0:	dec00204 	addi	sp,sp,8
 2002fe4:	f800283a 	ret

02002fe8 <strlen>:
 2002fe8:	208000cc 	andi	r2,r4,3
 2002fec:	2011883a 	mov	r8,r4
 2002ff0:	1000161e 	bne	r2,zero,200304c <strlen+0x64>
 2002ff4:	20c00017 	ldw	r3,0(r4)
 2002ff8:	017fbff4 	movhi	r5,65279
 2002ffc:	297fbfc4 	addi	r5,r5,-257
 2003000:	01e02074 	movhi	r7,32897
 2003004:	39e02004 	addi	r7,r7,-32640
 2003008:	1945883a 	add	r2,r3,r5
 200300c:	11c4703a 	and	r2,r2,r7
 2003010:	00c6303a 	nor	r3,zero,r3
 2003014:	1886703a 	and	r3,r3,r2
 2003018:	18000c1e 	bne	r3,zero,200304c <strlen+0x64>
 200301c:	280d883a 	mov	r6,r5
 2003020:	380b883a 	mov	r5,r7
 2003024:	21000104 	addi	r4,r4,4
 2003028:	20800017 	ldw	r2,0(r4)
 200302c:	1187883a 	add	r3,r2,r6
 2003030:	1946703a 	and	r3,r3,r5
 2003034:	0084303a 	nor	r2,zero,r2
 2003038:	10c4703a 	and	r2,r2,r3
 200303c:	103ff926 	beq	r2,zero,2003024 <strlen+0x3c>
 2003040:	20800007 	ldb	r2,0(r4)
 2003044:	10000326 	beq	r2,zero,2003054 <strlen+0x6c>
 2003048:	21000044 	addi	r4,r4,1
 200304c:	20800007 	ldb	r2,0(r4)
 2003050:	103ffd1e 	bne	r2,zero,2003048 <strlen+0x60>
 2003054:	2205c83a 	sub	r2,r4,r8
 2003058:	f800283a 	ret

0200305c <time>:
 200305c:	defffc04 	addi	sp,sp,-16
 2003060:	00808074 	movhi	r2,513
 2003064:	10850f04 	addi	r2,r2,5180
 2003068:	dc000215 	stw	r16,8(sp)
 200306c:	2021883a 	mov	r16,r4
 2003070:	11000017 	ldw	r4,0(r2)
 2003074:	d80b883a 	mov	r5,sp
 2003078:	000d883a 	mov	r6,zero
 200307c:	dfc00315 	stw	ra,12(sp)
 2003080:	20079bc0 	call	20079bc <_gettimeofday_r>
 2003084:	00ffffc4 	movi	r3,-1
 2003088:	10000416 	blt	r2,zero,200309c <time+0x40>
 200308c:	80000826 	beq	r16,zero,20030b0 <time+0x54>
 2003090:	d8800017 	ldw	r2,0(sp)
 2003094:	80800015 	stw	r2,0(r16)
 2003098:	1007883a 	mov	r3,r2
 200309c:	1805883a 	mov	r2,r3
 20030a0:	dfc00317 	ldw	ra,12(sp)
 20030a4:	dc000217 	ldw	r16,8(sp)
 20030a8:	dec00404 	addi	sp,sp,16
 20030ac:	f800283a 	ret
 20030b0:	d8800017 	ldw	r2,0(sp)
 20030b4:	003ff806 	br	2003098 <time+0x3c>

020030b8 <__sprint_r>:
 20030b8:	30800217 	ldw	r2,8(r6)
 20030bc:	defffe04 	addi	sp,sp,-8
 20030c0:	dc000015 	stw	r16,0(sp)
 20030c4:	dfc00115 	stw	ra,4(sp)
 20030c8:	3021883a 	mov	r16,r6
 20030cc:	0007883a 	mov	r3,zero
 20030d0:	1000061e 	bne	r2,zero,20030ec <__sprint_r+0x34>
 20030d4:	1805883a 	mov	r2,r3
 20030d8:	30000115 	stw	zero,4(r6)
 20030dc:	dfc00117 	ldw	ra,4(sp)
 20030e0:	dc000017 	ldw	r16,0(sp)
 20030e4:	dec00204 	addi	sp,sp,8
 20030e8:	f800283a 	ret
 20030ec:	20073a00 	call	20073a0 <__sfvwrite_r>
 20030f0:	1007883a 	mov	r3,r2
 20030f4:	1805883a 	mov	r2,r3
 20030f8:	80000115 	stw	zero,4(r16)
 20030fc:	80000215 	stw	zero,8(r16)
 2003100:	dfc00117 	ldw	ra,4(sp)
 2003104:	dc000017 	ldw	r16,0(sp)
 2003108:	dec00204 	addi	sp,sp,8
 200310c:	f800283a 	ret

02003110 <___vfprintf_internal_r>:
 2003110:	defea404 	addi	sp,sp,-1392
 2003114:	dd815815 	stw	r22,1376(sp)
 2003118:	dc015215 	stw	r16,1352(sp)
 200311c:	d9c15115 	stw	r7,1348(sp)
 2003120:	dfc15b15 	stw	ra,1388(sp)
 2003124:	df015a15 	stw	fp,1384(sp)
 2003128:	ddc15915 	stw	r23,1380(sp)
 200312c:	dd415715 	stw	r21,1372(sp)
 2003130:	dd015615 	stw	r20,1368(sp)
 2003134:	dcc15515 	stw	r19,1364(sp)
 2003138:	dc815415 	stw	r18,1360(sp)
 200313c:	dc415315 	stw	r17,1356(sp)
 2003140:	282d883a 	mov	r22,r5
 2003144:	3021883a 	mov	r16,r6
 2003148:	d9014f15 	stw	r4,1340(sp)
 200314c:	2007aa80 	call	2007aa8 <_localeconv_r>
 2003150:	10800017 	ldw	r2,0(r2)
 2003154:	d9c15117 	ldw	r7,1348(sp)
 2003158:	d8814915 	stw	r2,1316(sp)
 200315c:	d8814f17 	ldw	r2,1340(sp)
 2003160:	10000226 	beq	r2,zero,200316c <___vfprintf_internal_r+0x5c>
 2003164:	10800e17 	ldw	r2,56(r2)
 2003168:	10020d26 	beq	r2,zero,20039a0 <___vfprintf_internal_r+0x890>
 200316c:	b080030b 	ldhu	r2,12(r22)
 2003170:	1080020c 	andi	r2,r2,8
 2003174:	10020e26 	beq	r2,zero,20039b0 <___vfprintf_internal_r+0x8a0>
 2003178:	b0800417 	ldw	r2,16(r22)
 200317c:	10020c26 	beq	r2,zero,20039b0 <___vfprintf_internal_r+0x8a0>
 2003180:	b200030b 	ldhu	r8,12(r22)
 2003184:	00800284 	movi	r2,10
 2003188:	40c0068c 	andi	r3,r8,26
 200318c:	18802f1e 	bne	r3,r2,200324c <___vfprintf_internal_r+0x13c>
 2003190:	b080038f 	ldh	r2,14(r22)
 2003194:	10002d16 	blt	r2,zero,200324c <___vfprintf_internal_r+0x13c>
 2003198:	b240038b 	ldhu	r9,14(r22)
 200319c:	b2800717 	ldw	r10,28(r22)
 20031a0:	b2c00917 	ldw	r11,36(r22)
 20031a4:	d9014f17 	ldw	r4,1340(sp)
 20031a8:	dc402904 	addi	r17,sp,164
 20031ac:	d8804004 	addi	r2,sp,256
 20031b0:	00c10004 	movi	r3,1024
 20031b4:	423fff4c 	andi	r8,r8,65533
 20031b8:	800d883a 	mov	r6,r16
 20031bc:	880b883a 	mov	r5,r17
 20031c0:	da002c0d 	sth	r8,176(sp)
 20031c4:	da402c8d 	sth	r9,178(sp)
 20031c8:	da803015 	stw	r10,192(sp)
 20031cc:	dac03215 	stw	r11,200(sp)
 20031d0:	d8802d15 	stw	r2,180(sp)
 20031d4:	d8c02e15 	stw	r3,184(sp)
 20031d8:	d8802915 	stw	r2,164(sp)
 20031dc:	d8c02b15 	stw	r3,172(sp)
 20031e0:	d8002f15 	stw	zero,188(sp)
 20031e4:	20031100 	call	2003110 <___vfprintf_internal_r>
 20031e8:	d8814b15 	stw	r2,1324(sp)
 20031ec:	10000416 	blt	r2,zero,2003200 <___vfprintf_internal_r+0xf0>
 20031f0:	d9014f17 	ldw	r4,1340(sp)
 20031f4:	880b883a 	mov	r5,r17
 20031f8:	20069d00 	call	20069d0 <_fflush_r>
 20031fc:	1002321e 	bne	r2,zero,2003ac8 <___vfprintf_internal_r+0x9b8>
 2003200:	d8802c0b 	ldhu	r2,176(sp)
 2003204:	1080100c 	andi	r2,r2,64
 2003208:	10000326 	beq	r2,zero,2003218 <___vfprintf_internal_r+0x108>
 200320c:	b080030b 	ldhu	r2,12(r22)
 2003210:	10801014 	ori	r2,r2,64
 2003214:	b080030d 	sth	r2,12(r22)
 2003218:	d8814b17 	ldw	r2,1324(sp)
 200321c:	dfc15b17 	ldw	ra,1388(sp)
 2003220:	df015a17 	ldw	fp,1384(sp)
 2003224:	ddc15917 	ldw	r23,1380(sp)
 2003228:	dd815817 	ldw	r22,1376(sp)
 200322c:	dd415717 	ldw	r21,1372(sp)
 2003230:	dd015617 	ldw	r20,1368(sp)
 2003234:	dcc15517 	ldw	r19,1364(sp)
 2003238:	dc815417 	ldw	r18,1360(sp)
 200323c:	dc415317 	ldw	r17,1356(sp)
 2003240:	dc015217 	ldw	r16,1352(sp)
 2003244:	dec15c04 	addi	sp,sp,1392
 2003248:	f800283a 	ret
 200324c:	0005883a 	mov	r2,zero
 2003250:	0007883a 	mov	r3,zero
 2003254:	dd401904 	addi	r21,sp,100
 2003258:	d8814215 	stw	r2,1288(sp)
 200325c:	802f883a 	mov	r23,r16
 2003260:	d8c14315 	stw	r3,1292(sp)
 2003264:	d8014b15 	stw	zero,1324(sp)
 2003268:	d8014815 	stw	zero,1312(sp)
 200326c:	d8014415 	stw	zero,1296(sp)
 2003270:	d8014715 	stw	zero,1308(sp)
 2003274:	dd400c15 	stw	r21,48(sp)
 2003278:	d8000e15 	stw	zero,56(sp)
 200327c:	d8000d15 	stw	zero,52(sp)
 2003280:	b8800007 	ldb	r2,0(r23)
 2003284:	10001926 	beq	r2,zero,20032ec <___vfprintf_internal_r+0x1dc>
 2003288:	00c00944 	movi	r3,37
 200328c:	10c01726 	beq	r2,r3,20032ec <___vfprintf_internal_r+0x1dc>
 2003290:	b821883a 	mov	r16,r23
 2003294:	00000106 	br	200329c <___vfprintf_internal_r+0x18c>
 2003298:	10c00326 	beq	r2,r3,20032a8 <___vfprintf_internal_r+0x198>
 200329c:	84000044 	addi	r16,r16,1
 20032a0:	80800007 	ldb	r2,0(r16)
 20032a4:	103ffc1e 	bne	r2,zero,2003298 <___vfprintf_internal_r+0x188>
 20032a8:	85e7c83a 	sub	r19,r16,r23
 20032ac:	98000e26 	beq	r19,zero,20032e8 <___vfprintf_internal_r+0x1d8>
 20032b0:	dc800e17 	ldw	r18,56(sp)
 20032b4:	dc400d17 	ldw	r17,52(sp)
 20032b8:	008001c4 	movi	r2,7
 20032bc:	94e5883a 	add	r18,r18,r19
 20032c0:	8c400044 	addi	r17,r17,1
 20032c4:	adc00015 	stw	r23,0(r21)
 20032c8:	dc800e15 	stw	r18,56(sp)
 20032cc:	acc00115 	stw	r19,4(r21)
 20032d0:	dc400d15 	stw	r17,52(sp)
 20032d4:	14428b16 	blt	r2,r17,2003d04 <___vfprintf_internal_r+0xbf4>
 20032d8:	ad400204 	addi	r21,r21,8
 20032dc:	d9014b17 	ldw	r4,1324(sp)
 20032e0:	24c9883a 	add	r4,r4,r19
 20032e4:	d9014b15 	stw	r4,1324(sp)
 20032e8:	802f883a 	mov	r23,r16
 20032ec:	b8800007 	ldb	r2,0(r23)
 20032f0:	10013c26 	beq	r2,zero,20037e4 <___vfprintf_internal_r+0x6d4>
 20032f4:	bdc00044 	addi	r23,r23,1
 20032f8:	d8000405 	stb	zero,16(sp)
 20032fc:	b8c00007 	ldb	r3,0(r23)
 2003300:	04ffffc4 	movi	r19,-1
 2003304:	d8014c15 	stw	zero,1328(sp)
 2003308:	d8014a15 	stw	zero,1320(sp)
 200330c:	d8c14d15 	stw	r3,1332(sp)
 2003310:	bdc00044 	addi	r23,r23,1
 2003314:	d9414d17 	ldw	r5,1332(sp)
 2003318:	00801604 	movi	r2,88
 200331c:	28fff804 	addi	r3,r5,-32
 2003320:	10c06036 	bltu	r2,r3,20034a4 <___vfprintf_internal_r+0x394>
 2003324:	18c5883a 	add	r2,r3,r3
 2003328:	1085883a 	add	r2,r2,r2
 200332c:	00c08034 	movhi	r3,512
 2003330:	18ccd004 	addi	r3,r3,13120
 2003334:	10c5883a 	add	r2,r2,r3
 2003338:	11000017 	ldw	r4,0(r2)
 200333c:	2000683a 	jmp	r4
 2003340:	020042b4 	movhi	r8,266
 2003344:	020034a4 	muli	r8,zero,210
 2003348:	020034a4 	muli	r8,zero,210
 200334c:	020042a0 	cmpeqi	r8,zero,266
 2003350:	020034a4 	muli	r8,zero,210
 2003354:	020034a4 	muli	r8,zero,210
 2003358:	020034a4 	muli	r8,zero,210
 200335c:	020034a4 	muli	r8,zero,210
 2003360:	020034a4 	muli	r8,zero,210
 2003364:	020034a4 	muli	r8,zero,210
 2003368:	02004080 	call	200408 <__alt_mem_sdram_0-0x1dffbf8>
 200336c:	02004290 	cmplti	r8,zero,266
 2003370:	020034a4 	muli	r8,zero,210
 2003374:	02004098 	cmpnei	r8,zero,258
 2003378:	0200432c 	andhi	r8,zero,268
 200337c:	020034a4 	muli	r8,zero,210
 2003380:	02004318 	cmpnei	r8,zero,268
 2003384:	020042e0 	cmpeqi	r8,zero,267
 2003388:	020042e0 	cmpeqi	r8,zero,267
 200338c:	020042e0 	cmpeqi	r8,zero,267
 2003390:	020042e0 	cmpeqi	r8,zero,267
 2003394:	020042e0 	cmpeqi	r8,zero,267
 2003398:	020042e0 	cmpeqi	r8,zero,267
 200339c:	020042e0 	cmpeqi	r8,zero,267
 20033a0:	020042e0 	cmpeqi	r8,zero,267
 20033a4:	020042e0 	cmpeqi	r8,zero,267
 20033a8:	020034a4 	muli	r8,zero,210
 20033ac:	020034a4 	muli	r8,zero,210
 20033b0:	020034a4 	muli	r8,zero,210
 20033b4:	020034a4 	muli	r8,zero,210
 20033b8:	020034a4 	muli	r8,zero,210
 20033bc:	020034a4 	muli	r8,zero,210
 20033c0:	020034a4 	muli	r8,zero,210
 20033c4:	020034a4 	muli	r8,zero,210
 20033c8:	020034a4 	muli	r8,zero,210
 20033cc:	020034a4 	muli	r8,zero,210
 20033d0:	02003afc 	xorhi	r8,zero,235
 20033d4:	02004168 	cmpgeui	r8,zero,261
 20033d8:	020034a4 	muli	r8,zero,210
 20033dc:	02004168 	cmpgeui	r8,zero,261
 20033e0:	020034a4 	muli	r8,zero,210
 20033e4:	020034a4 	muli	r8,zero,210
 20033e8:	020034a4 	muli	r8,zero,210
 20033ec:	020034a4 	muli	r8,zero,210
 20033f0:	020042cc 	andi	r8,zero,267
 20033f4:	020034a4 	muli	r8,zero,210
 20033f8:	020034a4 	muli	r8,zero,210
 20033fc:	02003bb0 	cmpltui	r8,zero,238
 2003400:	020034a4 	muli	r8,zero,210
 2003404:	020034a4 	muli	r8,zero,210
 2003408:	020034a4 	muli	r8,zero,210
 200340c:	020034a4 	muli	r8,zero,210
 2003410:	020034a4 	muli	r8,zero,210
 2003414:	02003bfc 	xorhi	r8,zero,239
 2003418:	020034a4 	muli	r8,zero,210
 200341c:	020034a4 	muli	r8,zero,210
 2003420:	0200421c 	xori	r8,zero,264
 2003424:	020034a4 	muli	r8,zero,210
 2003428:	020034a4 	muli	r8,zero,210
 200342c:	020034a4 	muli	r8,zero,210
 2003430:	020034a4 	muli	r8,zero,210
 2003434:	020034a4 	muli	r8,zero,210
 2003438:	020034a4 	muli	r8,zero,210
 200343c:	020034a4 	muli	r8,zero,210
 2003440:	020034a4 	muli	r8,zero,210
 2003444:	020034a4 	muli	r8,zero,210
 2003448:	020034a4 	muli	r8,zero,210
 200344c:	020041f0 	cmpltui	r8,zero,263
 2003450:	02003b08 	cmpgei	r8,zero,236
 2003454:	02004168 	cmpgeui	r8,zero,261
 2003458:	02004168 	cmpgeui	r8,zero,261
 200345c:	02004168 	cmpgeui	r8,zero,261
 2003460:	02004154 	movui	r8,261
 2003464:	02003b08 	cmpgei	r8,zero,236
 2003468:	020034a4 	muli	r8,zero,210
 200346c:	020034a4 	muli	r8,zero,210
 2003470:	020040dc 	xori	r8,zero,259
 2003474:	020034a4 	muli	r8,zero,210
 2003478:	020040ac 	andhi	r8,zero,258
 200347c:	02003bbc 	xorhi	r8,zero,238
 2003480:	0200410c 	andi	r8,zero,260
 2003484:	020040f8 	rdprs	r8,zero,259
 2003488:	020034a4 	muli	r8,zero,210
 200348c:	02004388 	cmpgei	r8,zero,270
 2003490:	020034a4 	muli	r8,zero,210
 2003494:	02003c08 	cmpgei	r8,zero,240
 2003498:	020034a4 	muli	r8,zero,210
 200349c:	020034a4 	muli	r8,zero,210
 20034a0:	02004280 	call	200428 <__alt_mem_sdram_0-0x1dffbd8>
 20034a4:	d9014d17 	ldw	r4,1332(sp)
 20034a8:	2000ce26 	beq	r4,zero,20037e4 <___vfprintf_internal_r+0x6d4>
 20034ac:	01400044 	movi	r5,1
 20034b0:	d9800f04 	addi	r6,sp,60
 20034b4:	d9c14015 	stw	r7,1280(sp)
 20034b8:	d9414515 	stw	r5,1300(sp)
 20034bc:	d9814115 	stw	r6,1284(sp)
 20034c0:	280f883a 	mov	r7,r5
 20034c4:	d9000f05 	stb	r4,60(sp)
 20034c8:	d8000405 	stb	zero,16(sp)
 20034cc:	d8014615 	stw	zero,1304(sp)
 20034d0:	d8c14c17 	ldw	r3,1328(sp)
 20034d4:	1880008c 	andi	r2,r3,2
 20034d8:	1005003a 	cmpeq	r2,r2,zero
 20034dc:	d8815015 	stw	r2,1344(sp)
 20034e0:	1000031e 	bne	r2,zero,20034f0 <___vfprintf_internal_r+0x3e0>
 20034e4:	d9014517 	ldw	r4,1300(sp)
 20034e8:	21000084 	addi	r4,r4,2
 20034ec:	d9014515 	stw	r4,1300(sp)
 20034f0:	d9414c17 	ldw	r5,1328(sp)
 20034f4:	2940210c 	andi	r5,r5,132
 20034f8:	d9414e15 	stw	r5,1336(sp)
 20034fc:	28002d1e 	bne	r5,zero,20035b4 <___vfprintf_internal_r+0x4a4>
 2003500:	d9814a17 	ldw	r6,1320(sp)
 2003504:	d8814517 	ldw	r2,1300(sp)
 2003508:	30a1c83a 	sub	r16,r6,r2
 200350c:	0400290e 	bge	zero,r16,20035b4 <___vfprintf_internal_r+0x4a4>
 2003510:	00800404 	movi	r2,16
 2003514:	1404580e 	bge	r2,r16,2004678 <___vfprintf_internal_r+0x1568>
 2003518:	dc800e17 	ldw	r18,56(sp)
 200351c:	dc400d17 	ldw	r17,52(sp)
 2003520:	1027883a 	mov	r19,r2
 2003524:	07008074 	movhi	fp,513
 2003528:	e73d2684 	addi	fp,fp,-2918
 200352c:	050001c4 	movi	r20,7
 2003530:	00000306 	br	2003540 <___vfprintf_internal_r+0x430>
 2003534:	843ffc04 	addi	r16,r16,-16
 2003538:	ad400204 	addi	r21,r21,8
 200353c:	9c00130e 	bge	r19,r16,200358c <___vfprintf_internal_r+0x47c>
 2003540:	94800404 	addi	r18,r18,16
 2003544:	8c400044 	addi	r17,r17,1
 2003548:	af000015 	stw	fp,0(r21)
 200354c:	acc00115 	stw	r19,4(r21)
 2003550:	dc800e15 	stw	r18,56(sp)
 2003554:	dc400d15 	stw	r17,52(sp)
 2003558:	a47ff60e 	bge	r20,r17,2003534 <___vfprintf_internal_r+0x424>
 200355c:	d9014f17 	ldw	r4,1340(sp)
 2003560:	b00b883a 	mov	r5,r22
 2003564:	d9800c04 	addi	r6,sp,48
 2003568:	d9c15115 	stw	r7,1348(sp)
 200356c:	20030b80 	call	20030b8 <__sprint_r>
 2003570:	d9c15117 	ldw	r7,1348(sp)
 2003574:	10009e1e 	bne	r2,zero,20037f0 <___vfprintf_internal_r+0x6e0>
 2003578:	843ffc04 	addi	r16,r16,-16
 200357c:	dc800e17 	ldw	r18,56(sp)
 2003580:	dc400d17 	ldw	r17,52(sp)
 2003584:	dd401904 	addi	r21,sp,100
 2003588:	9c3fed16 	blt	r19,r16,2003540 <___vfprintf_internal_r+0x430>
 200358c:	9425883a 	add	r18,r18,r16
 2003590:	8c400044 	addi	r17,r17,1
 2003594:	008001c4 	movi	r2,7
 2003598:	af000015 	stw	fp,0(r21)
 200359c:	ac000115 	stw	r16,4(r21)
 20035a0:	dc800e15 	stw	r18,56(sp)
 20035a4:	dc400d15 	stw	r17,52(sp)
 20035a8:	1441f516 	blt	r2,r17,2003d80 <___vfprintf_internal_r+0xc70>
 20035ac:	ad400204 	addi	r21,r21,8
 20035b0:	00000206 	br	20035bc <___vfprintf_internal_r+0x4ac>
 20035b4:	dc800e17 	ldw	r18,56(sp)
 20035b8:	dc400d17 	ldw	r17,52(sp)
 20035bc:	d8800407 	ldb	r2,16(sp)
 20035c0:	10000b26 	beq	r2,zero,20035f0 <___vfprintf_internal_r+0x4e0>
 20035c4:	00800044 	movi	r2,1
 20035c8:	94800044 	addi	r18,r18,1
 20035cc:	8c400044 	addi	r17,r17,1
 20035d0:	a8800115 	stw	r2,4(r21)
 20035d4:	d8c00404 	addi	r3,sp,16
 20035d8:	008001c4 	movi	r2,7
 20035dc:	a8c00015 	stw	r3,0(r21)
 20035e0:	dc800e15 	stw	r18,56(sp)
 20035e4:	dc400d15 	stw	r17,52(sp)
 20035e8:	1441da16 	blt	r2,r17,2003d54 <___vfprintf_internal_r+0xc44>
 20035ec:	ad400204 	addi	r21,r21,8
 20035f0:	d9015017 	ldw	r4,1344(sp)
 20035f4:	20000b1e 	bne	r4,zero,2003624 <___vfprintf_internal_r+0x514>
 20035f8:	d8800444 	addi	r2,sp,17
 20035fc:	94800084 	addi	r18,r18,2
 2003600:	8c400044 	addi	r17,r17,1
 2003604:	a8800015 	stw	r2,0(r21)
 2003608:	00c00084 	movi	r3,2
 200360c:	008001c4 	movi	r2,7
 2003610:	a8c00115 	stw	r3,4(r21)
 2003614:	dc800e15 	stw	r18,56(sp)
 2003618:	dc400d15 	stw	r17,52(sp)
 200361c:	1441c216 	blt	r2,r17,2003d28 <___vfprintf_internal_r+0xc18>
 2003620:	ad400204 	addi	r21,r21,8
 2003624:	d9414e17 	ldw	r5,1336(sp)
 2003628:	00802004 	movi	r2,128
 200362c:	2880b126 	beq	r5,r2,20038f4 <___vfprintf_internal_r+0x7e4>
 2003630:	d8c14617 	ldw	r3,1304(sp)
 2003634:	19e1c83a 	sub	r16,r3,r7
 2003638:	0400260e 	bge	zero,r16,20036d4 <___vfprintf_internal_r+0x5c4>
 200363c:	00800404 	movi	r2,16
 2003640:	1403c90e 	bge	r2,r16,2004568 <___vfprintf_internal_r+0x1458>
 2003644:	1027883a 	mov	r19,r2
 2003648:	07008074 	movhi	fp,513
 200364c:	e73d2284 	addi	fp,fp,-2934
 2003650:	050001c4 	movi	r20,7
 2003654:	00000306 	br	2003664 <___vfprintf_internal_r+0x554>
 2003658:	843ffc04 	addi	r16,r16,-16
 200365c:	ad400204 	addi	r21,r21,8
 2003660:	9c00130e 	bge	r19,r16,20036b0 <___vfprintf_internal_r+0x5a0>
 2003664:	94800404 	addi	r18,r18,16
 2003668:	8c400044 	addi	r17,r17,1
 200366c:	af000015 	stw	fp,0(r21)
 2003670:	acc00115 	stw	r19,4(r21)
 2003674:	dc800e15 	stw	r18,56(sp)
 2003678:	dc400d15 	stw	r17,52(sp)
 200367c:	a47ff60e 	bge	r20,r17,2003658 <___vfprintf_internal_r+0x548>
 2003680:	d9014f17 	ldw	r4,1340(sp)
 2003684:	b00b883a 	mov	r5,r22
 2003688:	d9800c04 	addi	r6,sp,48
 200368c:	d9c15115 	stw	r7,1348(sp)
 2003690:	20030b80 	call	20030b8 <__sprint_r>
 2003694:	d9c15117 	ldw	r7,1348(sp)
 2003698:	1000551e 	bne	r2,zero,20037f0 <___vfprintf_internal_r+0x6e0>
 200369c:	843ffc04 	addi	r16,r16,-16
 20036a0:	dc800e17 	ldw	r18,56(sp)
 20036a4:	dc400d17 	ldw	r17,52(sp)
 20036a8:	dd401904 	addi	r21,sp,100
 20036ac:	9c3fed16 	blt	r19,r16,2003664 <___vfprintf_internal_r+0x554>
 20036b0:	9425883a 	add	r18,r18,r16
 20036b4:	8c400044 	addi	r17,r17,1
 20036b8:	008001c4 	movi	r2,7
 20036bc:	af000015 	stw	fp,0(r21)
 20036c0:	ac000115 	stw	r16,4(r21)
 20036c4:	dc800e15 	stw	r18,56(sp)
 20036c8:	dc400d15 	stw	r17,52(sp)
 20036cc:	14418216 	blt	r2,r17,2003cd8 <___vfprintf_internal_r+0xbc8>
 20036d0:	ad400204 	addi	r21,r21,8
 20036d4:	d9014c17 	ldw	r4,1328(sp)
 20036d8:	2080400c 	andi	r2,r4,256
 20036dc:	10004a1e 	bne	r2,zero,2003808 <___vfprintf_internal_r+0x6f8>
 20036e0:	d9414117 	ldw	r5,1284(sp)
 20036e4:	91e5883a 	add	r18,r18,r7
 20036e8:	8c400044 	addi	r17,r17,1
 20036ec:	008001c4 	movi	r2,7
 20036f0:	a9400015 	stw	r5,0(r21)
 20036f4:	a9c00115 	stw	r7,4(r21)
 20036f8:	dc800e15 	stw	r18,56(sp)
 20036fc:	dc400d15 	stw	r17,52(sp)
 2003700:	14416716 	blt	r2,r17,2003ca0 <___vfprintf_internal_r+0xb90>
 2003704:	a8c00204 	addi	r3,r21,8
 2003708:	d9814c17 	ldw	r6,1328(sp)
 200370c:	3080010c 	andi	r2,r6,4
 2003710:	10002826 	beq	r2,zero,20037b4 <___vfprintf_internal_r+0x6a4>
 2003714:	d8814a17 	ldw	r2,1320(sp)
 2003718:	d9014517 	ldw	r4,1300(sp)
 200371c:	1121c83a 	sub	r16,r2,r4
 2003720:	0400240e 	bge	zero,r16,20037b4 <___vfprintf_internal_r+0x6a4>
 2003724:	00800404 	movi	r2,16
 2003728:	14044f0e 	bge	r2,r16,2004868 <___vfprintf_internal_r+0x1758>
 200372c:	dc400d17 	ldw	r17,52(sp)
 2003730:	1027883a 	mov	r19,r2
 2003734:	07008074 	movhi	fp,513
 2003738:	e73d2684 	addi	fp,fp,-2918
 200373c:	050001c4 	movi	r20,7
 2003740:	00000306 	br	2003750 <___vfprintf_internal_r+0x640>
 2003744:	843ffc04 	addi	r16,r16,-16
 2003748:	18c00204 	addi	r3,r3,8
 200374c:	9c00110e 	bge	r19,r16,2003794 <___vfprintf_internal_r+0x684>
 2003750:	94800404 	addi	r18,r18,16
 2003754:	8c400044 	addi	r17,r17,1
 2003758:	1f000015 	stw	fp,0(r3)
 200375c:	1cc00115 	stw	r19,4(r3)
 2003760:	dc800e15 	stw	r18,56(sp)
 2003764:	dc400d15 	stw	r17,52(sp)
 2003768:	a47ff60e 	bge	r20,r17,2003744 <___vfprintf_internal_r+0x634>
 200376c:	d9014f17 	ldw	r4,1340(sp)
 2003770:	b00b883a 	mov	r5,r22
 2003774:	d9800c04 	addi	r6,sp,48
 2003778:	20030b80 	call	20030b8 <__sprint_r>
 200377c:	10001c1e 	bne	r2,zero,20037f0 <___vfprintf_internal_r+0x6e0>
 2003780:	843ffc04 	addi	r16,r16,-16
 2003784:	dc800e17 	ldw	r18,56(sp)
 2003788:	dc400d17 	ldw	r17,52(sp)
 200378c:	d8c01904 	addi	r3,sp,100
 2003790:	9c3fef16 	blt	r19,r16,2003750 <___vfprintf_internal_r+0x640>
 2003794:	9425883a 	add	r18,r18,r16
 2003798:	8c400044 	addi	r17,r17,1
 200379c:	008001c4 	movi	r2,7
 20037a0:	1f000015 	stw	fp,0(r3)
 20037a4:	1c000115 	stw	r16,4(r3)
 20037a8:	dc800e15 	stw	r18,56(sp)
 20037ac:	dc400d15 	stw	r17,52(sp)
 20037b0:	1440cb16 	blt	r2,r17,2003ae0 <___vfprintf_internal_r+0x9d0>
 20037b4:	d8814a17 	ldw	r2,1320(sp)
 20037b8:	d9414517 	ldw	r5,1300(sp)
 20037bc:	1140010e 	bge	r2,r5,20037c4 <___vfprintf_internal_r+0x6b4>
 20037c0:	2805883a 	mov	r2,r5
 20037c4:	d9814b17 	ldw	r6,1324(sp)
 20037c8:	308d883a 	add	r6,r6,r2
 20037cc:	d9814b15 	stw	r6,1324(sp)
 20037d0:	90013b1e 	bne	r18,zero,2003cc0 <___vfprintf_internal_r+0xbb0>
 20037d4:	d9c14017 	ldw	r7,1280(sp)
 20037d8:	dd401904 	addi	r21,sp,100
 20037dc:	d8000d15 	stw	zero,52(sp)
 20037e0:	003ea706 	br	2003280 <___vfprintf_internal_r+0x170>
 20037e4:	d8800e17 	ldw	r2,56(sp)
 20037e8:	10053f1e 	bne	r2,zero,2004ce8 <___vfprintf_internal_r+0x1bd8>
 20037ec:	d8000d15 	stw	zero,52(sp)
 20037f0:	b080030b 	ldhu	r2,12(r22)
 20037f4:	1080100c 	andi	r2,r2,64
 20037f8:	103e8726 	beq	r2,zero,2003218 <___vfprintf_internal_r+0x108>
 20037fc:	00bfffc4 	movi	r2,-1
 2003800:	d8814b15 	stw	r2,1324(sp)
 2003804:	003e8406 	br	2003218 <___vfprintf_internal_r+0x108>
 2003808:	d9814d17 	ldw	r6,1332(sp)
 200380c:	00801944 	movi	r2,101
 2003810:	11806e16 	blt	r2,r6,20039cc <___vfprintf_internal_r+0x8bc>
 2003814:	d9414717 	ldw	r5,1308(sp)
 2003818:	00c00044 	movi	r3,1
 200381c:	1943430e 	bge	r3,r5,200452c <___vfprintf_internal_r+0x141c>
 2003820:	d8814117 	ldw	r2,1284(sp)
 2003824:	94800044 	addi	r18,r18,1
 2003828:	8c400044 	addi	r17,r17,1
 200382c:	a8800015 	stw	r2,0(r21)
 2003830:	008001c4 	movi	r2,7
 2003834:	a8c00115 	stw	r3,4(r21)
 2003838:	dc800e15 	stw	r18,56(sp)
 200383c:	dc400d15 	stw	r17,52(sp)
 2003840:	1441ca16 	blt	r2,r17,2003f6c <___vfprintf_internal_r+0xe5c>
 2003844:	a8c00204 	addi	r3,r21,8
 2003848:	d9014917 	ldw	r4,1316(sp)
 200384c:	00800044 	movi	r2,1
 2003850:	94800044 	addi	r18,r18,1
 2003854:	8c400044 	addi	r17,r17,1
 2003858:	18800115 	stw	r2,4(r3)
 200385c:	008001c4 	movi	r2,7
 2003860:	19000015 	stw	r4,0(r3)
 2003864:	dc800e15 	stw	r18,56(sp)
 2003868:	dc400d15 	stw	r17,52(sp)
 200386c:	1441b616 	blt	r2,r17,2003f48 <___vfprintf_internal_r+0xe38>
 2003870:	1cc00204 	addi	r19,r3,8
 2003874:	d9014217 	ldw	r4,1288(sp)
 2003878:	d9414317 	ldw	r5,1292(sp)
 200387c:	000d883a 	mov	r6,zero
 2003880:	000f883a 	mov	r7,zero
 2003884:	200af700 	call	200af70 <__nedf2>
 2003888:	10017426 	beq	r2,zero,2003e5c <___vfprintf_internal_r+0xd4c>
 200388c:	d9414717 	ldw	r5,1308(sp)
 2003890:	d9814117 	ldw	r6,1284(sp)
 2003894:	8c400044 	addi	r17,r17,1
 2003898:	2c85883a 	add	r2,r5,r18
 200389c:	14bfffc4 	addi	r18,r2,-1
 20038a0:	28bfffc4 	addi	r2,r5,-1
 20038a4:	30c00044 	addi	r3,r6,1
 20038a8:	98800115 	stw	r2,4(r19)
 20038ac:	008001c4 	movi	r2,7
 20038b0:	98c00015 	stw	r3,0(r19)
 20038b4:	dc800e15 	stw	r18,56(sp)
 20038b8:	dc400d15 	stw	r17,52(sp)
 20038bc:	14418e16 	blt	r2,r17,2003ef8 <___vfprintf_internal_r+0xde8>
 20038c0:	9cc00204 	addi	r19,r19,8
 20038c4:	d9414817 	ldw	r5,1312(sp)
 20038c8:	d8800804 	addi	r2,sp,32
 20038cc:	8c400044 	addi	r17,r17,1
 20038d0:	9165883a 	add	r18,r18,r5
 20038d4:	98800015 	stw	r2,0(r19)
 20038d8:	008001c4 	movi	r2,7
 20038dc:	99400115 	stw	r5,4(r19)
 20038e0:	dc800e15 	stw	r18,56(sp)
 20038e4:	dc400d15 	stw	r17,52(sp)
 20038e8:	1440ed16 	blt	r2,r17,2003ca0 <___vfprintf_internal_r+0xb90>
 20038ec:	98c00204 	addi	r3,r19,8
 20038f0:	003f8506 	br	2003708 <___vfprintf_internal_r+0x5f8>
 20038f4:	d9814a17 	ldw	r6,1320(sp)
 20038f8:	d8814517 	ldw	r2,1300(sp)
 20038fc:	30a1c83a 	sub	r16,r6,r2
 2003900:	043f4b0e 	bge	zero,r16,2003630 <___vfprintf_internal_r+0x520>
 2003904:	00800404 	movi	r2,16
 2003908:	1404340e 	bge	r2,r16,20049dc <___vfprintf_internal_r+0x18cc>
 200390c:	1027883a 	mov	r19,r2
 2003910:	07008074 	movhi	fp,513
 2003914:	e73d2284 	addi	fp,fp,-2934
 2003918:	050001c4 	movi	r20,7
 200391c:	00000306 	br	200392c <___vfprintf_internal_r+0x81c>
 2003920:	843ffc04 	addi	r16,r16,-16
 2003924:	ad400204 	addi	r21,r21,8
 2003928:	9c00130e 	bge	r19,r16,2003978 <___vfprintf_internal_r+0x868>
 200392c:	94800404 	addi	r18,r18,16
 2003930:	8c400044 	addi	r17,r17,1
 2003934:	af000015 	stw	fp,0(r21)
 2003938:	acc00115 	stw	r19,4(r21)
 200393c:	dc800e15 	stw	r18,56(sp)
 2003940:	dc400d15 	stw	r17,52(sp)
 2003944:	a47ff60e 	bge	r20,r17,2003920 <___vfprintf_internal_r+0x810>
 2003948:	d9014f17 	ldw	r4,1340(sp)
 200394c:	b00b883a 	mov	r5,r22
 2003950:	d9800c04 	addi	r6,sp,48
 2003954:	d9c15115 	stw	r7,1348(sp)
 2003958:	20030b80 	call	20030b8 <__sprint_r>
 200395c:	d9c15117 	ldw	r7,1348(sp)
 2003960:	103fa31e 	bne	r2,zero,20037f0 <___vfprintf_internal_r+0x6e0>
 2003964:	843ffc04 	addi	r16,r16,-16
 2003968:	dc800e17 	ldw	r18,56(sp)
 200396c:	dc400d17 	ldw	r17,52(sp)
 2003970:	dd401904 	addi	r21,sp,100
 2003974:	9c3fed16 	blt	r19,r16,200392c <___vfprintf_internal_r+0x81c>
 2003978:	9425883a 	add	r18,r18,r16
 200397c:	8c400044 	addi	r17,r17,1
 2003980:	008001c4 	movi	r2,7
 2003984:	af000015 	stw	fp,0(r21)
 2003988:	ac000115 	stw	r16,4(r21)
 200398c:	dc800e15 	stw	r18,56(sp)
 2003990:	dc400d15 	stw	r17,52(sp)
 2003994:	14416116 	blt	r2,r17,2003f1c <___vfprintf_internal_r+0xe0c>
 2003998:	ad400204 	addi	r21,r21,8
 200399c:	003f2406 	br	2003630 <___vfprintf_internal_r+0x520>
 20039a0:	d9014f17 	ldw	r4,1340(sp)
 20039a4:	2006c680 	call	2006c68 <__sinit>
 20039a8:	d9c15117 	ldw	r7,1348(sp)
 20039ac:	003def06 	br	200316c <___vfprintf_internal_r+0x5c>
 20039b0:	d9014f17 	ldw	r4,1340(sp)
 20039b4:	b00b883a 	mov	r5,r22
 20039b8:	d9c15115 	stw	r7,1348(sp)
 20039bc:	20050580 	call	2005058 <__swsetup_r>
 20039c0:	d9c15117 	ldw	r7,1348(sp)
 20039c4:	103dee26 	beq	r2,zero,2003180 <___vfprintf_internal_r+0x70>
 20039c8:	003f8c06 	br	20037fc <___vfprintf_internal_r+0x6ec>
 20039cc:	d9014217 	ldw	r4,1288(sp)
 20039d0:	d9414317 	ldw	r5,1292(sp)
 20039d4:	000d883a 	mov	r6,zero
 20039d8:	000f883a 	mov	r7,zero
 20039dc:	200aee80 	call	200aee8 <__eqdf2>
 20039e0:	1000f21e 	bne	r2,zero,2003dac <___vfprintf_internal_r+0xc9c>
 20039e4:	00808074 	movhi	r2,513
 20039e8:	10bd2204 	addi	r2,r2,-2936
 20039ec:	94800044 	addi	r18,r18,1
 20039f0:	8c400044 	addi	r17,r17,1
 20039f4:	a8800015 	stw	r2,0(r21)
 20039f8:	00c00044 	movi	r3,1
 20039fc:	008001c4 	movi	r2,7
 2003a00:	a8c00115 	stw	r3,4(r21)
 2003a04:	dc800e15 	stw	r18,56(sp)
 2003a08:	dc400d15 	stw	r17,52(sp)
 2003a0c:	1442fa16 	blt	r2,r17,20045f8 <___vfprintf_internal_r+0x14e8>
 2003a10:	a8c00204 	addi	r3,r21,8
 2003a14:	d8800517 	ldw	r2,20(sp)
 2003a18:	d9014717 	ldw	r4,1308(sp)
 2003a1c:	11015c0e 	bge	r2,r4,2003f90 <___vfprintf_internal_r+0xe80>
 2003a20:	dc400d17 	ldw	r17,52(sp)
 2003a24:	d9814917 	ldw	r6,1316(sp)
 2003a28:	00800044 	movi	r2,1
 2003a2c:	94800044 	addi	r18,r18,1
 2003a30:	8c400044 	addi	r17,r17,1
 2003a34:	18800115 	stw	r2,4(r3)
 2003a38:	008001c4 	movi	r2,7
 2003a3c:	19800015 	stw	r6,0(r3)
 2003a40:	dc800e15 	stw	r18,56(sp)
 2003a44:	dc400d15 	stw	r17,52(sp)
 2003a48:	14431016 	blt	r2,r17,200468c <___vfprintf_internal_r+0x157c>
 2003a4c:	18c00204 	addi	r3,r3,8
 2003a50:	d8814717 	ldw	r2,1308(sp)
 2003a54:	143fffc4 	addi	r16,r2,-1
 2003a58:	043f2b0e 	bge	zero,r16,2003708 <___vfprintf_internal_r+0x5f8>
 2003a5c:	00800404 	movi	r2,16
 2003a60:	1402a20e 	bge	r2,r16,20044ec <___vfprintf_internal_r+0x13dc>
 2003a64:	dc400d17 	ldw	r17,52(sp)
 2003a68:	1027883a 	mov	r19,r2
 2003a6c:	07008074 	movhi	fp,513
 2003a70:	e73d2284 	addi	fp,fp,-2934
 2003a74:	050001c4 	movi	r20,7
 2003a78:	00000306 	br	2003a88 <___vfprintf_internal_r+0x978>
 2003a7c:	18c00204 	addi	r3,r3,8
 2003a80:	843ffc04 	addi	r16,r16,-16
 2003a84:	9c029c0e 	bge	r19,r16,20044f8 <___vfprintf_internal_r+0x13e8>
 2003a88:	94800404 	addi	r18,r18,16
 2003a8c:	8c400044 	addi	r17,r17,1
 2003a90:	1f000015 	stw	fp,0(r3)
 2003a94:	1cc00115 	stw	r19,4(r3)
 2003a98:	dc800e15 	stw	r18,56(sp)
 2003a9c:	dc400d15 	stw	r17,52(sp)
 2003aa0:	a47ff60e 	bge	r20,r17,2003a7c <___vfprintf_internal_r+0x96c>
 2003aa4:	d9014f17 	ldw	r4,1340(sp)
 2003aa8:	b00b883a 	mov	r5,r22
 2003aac:	d9800c04 	addi	r6,sp,48
 2003ab0:	20030b80 	call	20030b8 <__sprint_r>
 2003ab4:	103f4e1e 	bne	r2,zero,20037f0 <___vfprintf_internal_r+0x6e0>
 2003ab8:	dc800e17 	ldw	r18,56(sp)
 2003abc:	dc400d17 	ldw	r17,52(sp)
 2003ac0:	d8c01904 	addi	r3,sp,100
 2003ac4:	003fee06 	br	2003a80 <___vfprintf_internal_r+0x970>
 2003ac8:	d8802c0b 	ldhu	r2,176(sp)
 2003acc:	00ffffc4 	movi	r3,-1
 2003ad0:	d8c14b15 	stw	r3,1324(sp)
 2003ad4:	1080100c 	andi	r2,r2,64
 2003ad8:	103dcc1e 	bne	r2,zero,200320c <___vfprintf_internal_r+0xfc>
 2003adc:	003dce06 	br	2003218 <___vfprintf_internal_r+0x108>
 2003ae0:	d9014f17 	ldw	r4,1340(sp)
 2003ae4:	b00b883a 	mov	r5,r22
 2003ae8:	d9800c04 	addi	r6,sp,48
 2003aec:	20030b80 	call	20030b8 <__sprint_r>
 2003af0:	103f3f1e 	bne	r2,zero,20037f0 <___vfprintf_internal_r+0x6e0>
 2003af4:	dc800e17 	ldw	r18,56(sp)
 2003af8:	003f2e06 	br	20037b4 <___vfprintf_internal_r+0x6a4>
 2003afc:	d9414c17 	ldw	r5,1328(sp)
 2003b00:	29400414 	ori	r5,r5,16
 2003b04:	d9414c15 	stw	r5,1328(sp)
 2003b08:	d9814c17 	ldw	r6,1328(sp)
 2003b0c:	3080080c 	andi	r2,r6,32
 2003b10:	10014f1e 	bne	r2,zero,2004050 <___vfprintf_internal_r+0xf40>
 2003b14:	d8c14c17 	ldw	r3,1328(sp)
 2003b18:	1880040c 	andi	r2,r3,16
 2003b1c:	1002ea1e 	bne	r2,zero,20046c8 <___vfprintf_internal_r+0x15b8>
 2003b20:	d9014c17 	ldw	r4,1328(sp)
 2003b24:	2080100c 	andi	r2,r4,64
 2003b28:	1002e726 	beq	r2,zero,20046c8 <___vfprintf_internal_r+0x15b8>
 2003b2c:	3880000f 	ldh	r2,0(r7)
 2003b30:	39c00104 	addi	r7,r7,4
 2003b34:	d9c14015 	stw	r7,1280(sp)
 2003b38:	1023d7fa 	srai	r17,r2,31
 2003b3c:	1021883a 	mov	r16,r2
 2003b40:	88037216 	blt	r17,zero,200490c <___vfprintf_internal_r+0x17fc>
 2003b44:	01000044 	movi	r4,1
 2003b48:	98000416 	blt	r19,zero,2003b5c <___vfprintf_internal_r+0xa4c>
 2003b4c:	d8c14c17 	ldw	r3,1328(sp)
 2003b50:	00bfdfc4 	movi	r2,-129
 2003b54:	1886703a 	and	r3,r3,r2
 2003b58:	d8c14c15 	stw	r3,1328(sp)
 2003b5c:	8444b03a 	or	r2,r16,r17
 2003b60:	1002261e 	bne	r2,zero,20043fc <___vfprintf_internal_r+0x12ec>
 2003b64:	9802251e 	bne	r19,zero,20043fc <___vfprintf_internal_r+0x12ec>
 2003b68:	20803fcc 	andi	r2,r4,255
 2003b6c:	10029b26 	beq	r2,zero,20045dc <___vfprintf_internal_r+0x14cc>
 2003b70:	d8c01904 	addi	r3,sp,100
 2003b74:	dd000f04 	addi	r20,sp,60
 2003b78:	d8c14115 	stw	r3,1284(sp)
 2003b7c:	d8c14117 	ldw	r3,1284(sp)
 2003b80:	dcc14515 	stw	r19,1300(sp)
 2003b84:	a0c5c83a 	sub	r2,r20,r3
 2003b88:	11c00a04 	addi	r7,r2,40
 2003b8c:	99c0010e 	bge	r19,r7,2003b94 <___vfprintf_internal_r+0xa84>
 2003b90:	d9c14515 	stw	r7,1300(sp)
 2003b94:	dcc14615 	stw	r19,1304(sp)
 2003b98:	d8800407 	ldb	r2,16(sp)
 2003b9c:	103e4c26 	beq	r2,zero,20034d0 <___vfprintf_internal_r+0x3c0>
 2003ba0:	d8814517 	ldw	r2,1300(sp)
 2003ba4:	10800044 	addi	r2,r2,1
 2003ba8:	d8814515 	stw	r2,1300(sp)
 2003bac:	003e4806 	br	20034d0 <___vfprintf_internal_r+0x3c0>
 2003bb0:	d9814c17 	ldw	r6,1328(sp)
 2003bb4:	31800414 	ori	r6,r6,16
 2003bb8:	d9814c15 	stw	r6,1328(sp)
 2003bbc:	d8c14c17 	ldw	r3,1328(sp)
 2003bc0:	1880080c 	andi	r2,r3,32
 2003bc4:	1001271e 	bne	r2,zero,2004064 <___vfprintf_internal_r+0xf54>
 2003bc8:	d9414c17 	ldw	r5,1328(sp)
 2003bcc:	2880040c 	andi	r2,r5,16
 2003bd0:	1002b61e 	bne	r2,zero,20046ac <___vfprintf_internal_r+0x159c>
 2003bd4:	d9814c17 	ldw	r6,1328(sp)
 2003bd8:	3080100c 	andi	r2,r6,64
 2003bdc:	1002b326 	beq	r2,zero,20046ac <___vfprintf_internal_r+0x159c>
 2003be0:	3c00000b 	ldhu	r16,0(r7)
 2003be4:	0009883a 	mov	r4,zero
 2003be8:	39c00104 	addi	r7,r7,4
 2003bec:	0023883a 	mov	r17,zero
 2003bf0:	d9c14015 	stw	r7,1280(sp)
 2003bf4:	d8000405 	stb	zero,16(sp)
 2003bf8:	003fd306 	br	2003b48 <___vfprintf_internal_r+0xa38>
 2003bfc:	d9014c17 	ldw	r4,1328(sp)
 2003c00:	21000414 	ori	r4,r4,16
 2003c04:	d9014c15 	stw	r4,1328(sp)
 2003c08:	d9414c17 	ldw	r5,1328(sp)
 2003c0c:	2880080c 	andi	r2,r5,32
 2003c10:	1001081e 	bne	r2,zero,2004034 <___vfprintf_internal_r+0xf24>
 2003c14:	d8c14c17 	ldw	r3,1328(sp)
 2003c18:	1880040c 	andi	r2,r3,16
 2003c1c:	1002b01e 	bne	r2,zero,20046e0 <___vfprintf_internal_r+0x15d0>
 2003c20:	d9014c17 	ldw	r4,1328(sp)
 2003c24:	2080100c 	andi	r2,r4,64
 2003c28:	1002ad26 	beq	r2,zero,20046e0 <___vfprintf_internal_r+0x15d0>
 2003c2c:	3c00000b 	ldhu	r16,0(r7)
 2003c30:	01000044 	movi	r4,1
 2003c34:	39c00104 	addi	r7,r7,4
 2003c38:	0023883a 	mov	r17,zero
 2003c3c:	d9c14015 	stw	r7,1280(sp)
 2003c40:	d8000405 	stb	zero,16(sp)
 2003c44:	003fc006 	br	2003b48 <___vfprintf_internal_r+0xa38>
 2003c48:	d9014f17 	ldw	r4,1340(sp)
 2003c4c:	b00b883a 	mov	r5,r22
 2003c50:	d9800c04 	addi	r6,sp,48
 2003c54:	20030b80 	call	20030b8 <__sprint_r>
 2003c58:	103ee51e 	bne	r2,zero,20037f0 <___vfprintf_internal_r+0x6e0>
 2003c5c:	dc800e17 	ldw	r18,56(sp)
 2003c60:	d8c01904 	addi	r3,sp,100
 2003c64:	d9814c17 	ldw	r6,1328(sp)
 2003c68:	3080004c 	andi	r2,r6,1
 2003c6c:	1005003a 	cmpeq	r2,r2,zero
 2003c70:	103ea51e 	bne	r2,zero,2003708 <___vfprintf_internal_r+0x5f8>
 2003c74:	00800044 	movi	r2,1
 2003c78:	dc400d17 	ldw	r17,52(sp)
 2003c7c:	18800115 	stw	r2,4(r3)
 2003c80:	d8814917 	ldw	r2,1316(sp)
 2003c84:	94800044 	addi	r18,r18,1
 2003c88:	8c400044 	addi	r17,r17,1
 2003c8c:	18800015 	stw	r2,0(r3)
 2003c90:	008001c4 	movi	r2,7
 2003c94:	dc800e15 	stw	r18,56(sp)
 2003c98:	dc400d15 	stw	r17,52(sp)
 2003c9c:	14421e0e 	bge	r2,r17,2004518 <___vfprintf_internal_r+0x1408>
 2003ca0:	d9014f17 	ldw	r4,1340(sp)
 2003ca4:	b00b883a 	mov	r5,r22
 2003ca8:	d9800c04 	addi	r6,sp,48
 2003cac:	20030b80 	call	20030b8 <__sprint_r>
 2003cb0:	103ecf1e 	bne	r2,zero,20037f0 <___vfprintf_internal_r+0x6e0>
 2003cb4:	dc800e17 	ldw	r18,56(sp)
 2003cb8:	d8c01904 	addi	r3,sp,100
 2003cbc:	003e9206 	br	2003708 <___vfprintf_internal_r+0x5f8>
 2003cc0:	d9014f17 	ldw	r4,1340(sp)
 2003cc4:	b00b883a 	mov	r5,r22
 2003cc8:	d9800c04 	addi	r6,sp,48
 2003ccc:	20030b80 	call	20030b8 <__sprint_r>
 2003cd0:	103ec026 	beq	r2,zero,20037d4 <___vfprintf_internal_r+0x6c4>
 2003cd4:	003ec606 	br	20037f0 <___vfprintf_internal_r+0x6e0>
 2003cd8:	d9014f17 	ldw	r4,1340(sp)
 2003cdc:	b00b883a 	mov	r5,r22
 2003ce0:	d9800c04 	addi	r6,sp,48
 2003ce4:	d9c15115 	stw	r7,1348(sp)
 2003ce8:	20030b80 	call	20030b8 <__sprint_r>
 2003cec:	d9c15117 	ldw	r7,1348(sp)
 2003cf0:	103ebf1e 	bne	r2,zero,20037f0 <___vfprintf_internal_r+0x6e0>
 2003cf4:	dc800e17 	ldw	r18,56(sp)
 2003cf8:	dc400d17 	ldw	r17,52(sp)
 2003cfc:	dd401904 	addi	r21,sp,100
 2003d00:	003e7406 	br	20036d4 <___vfprintf_internal_r+0x5c4>
 2003d04:	d9014f17 	ldw	r4,1340(sp)
 2003d08:	b00b883a 	mov	r5,r22
 2003d0c:	d9800c04 	addi	r6,sp,48
 2003d10:	d9c15115 	stw	r7,1348(sp)
 2003d14:	20030b80 	call	20030b8 <__sprint_r>
 2003d18:	d9c15117 	ldw	r7,1348(sp)
 2003d1c:	103eb41e 	bne	r2,zero,20037f0 <___vfprintf_internal_r+0x6e0>
 2003d20:	dd401904 	addi	r21,sp,100
 2003d24:	003d6d06 	br	20032dc <___vfprintf_internal_r+0x1cc>
 2003d28:	d9014f17 	ldw	r4,1340(sp)
 2003d2c:	b00b883a 	mov	r5,r22
 2003d30:	d9800c04 	addi	r6,sp,48
 2003d34:	d9c15115 	stw	r7,1348(sp)
 2003d38:	20030b80 	call	20030b8 <__sprint_r>
 2003d3c:	d9c15117 	ldw	r7,1348(sp)
 2003d40:	103eab1e 	bne	r2,zero,20037f0 <___vfprintf_internal_r+0x6e0>
 2003d44:	dc800e17 	ldw	r18,56(sp)
 2003d48:	dc400d17 	ldw	r17,52(sp)
 2003d4c:	dd401904 	addi	r21,sp,100
 2003d50:	003e3406 	br	2003624 <___vfprintf_internal_r+0x514>
 2003d54:	d9014f17 	ldw	r4,1340(sp)
 2003d58:	b00b883a 	mov	r5,r22
 2003d5c:	d9800c04 	addi	r6,sp,48
 2003d60:	d9c15115 	stw	r7,1348(sp)
 2003d64:	20030b80 	call	20030b8 <__sprint_r>
 2003d68:	d9c15117 	ldw	r7,1348(sp)
 2003d6c:	103ea01e 	bne	r2,zero,20037f0 <___vfprintf_internal_r+0x6e0>
 2003d70:	dc800e17 	ldw	r18,56(sp)
 2003d74:	dc400d17 	ldw	r17,52(sp)
 2003d78:	dd401904 	addi	r21,sp,100
 2003d7c:	003e1c06 	br	20035f0 <___vfprintf_internal_r+0x4e0>
 2003d80:	d9014f17 	ldw	r4,1340(sp)
 2003d84:	b00b883a 	mov	r5,r22
 2003d88:	d9800c04 	addi	r6,sp,48
 2003d8c:	d9c15115 	stw	r7,1348(sp)
 2003d90:	20030b80 	call	20030b8 <__sprint_r>
 2003d94:	d9c15117 	ldw	r7,1348(sp)
 2003d98:	103e951e 	bne	r2,zero,20037f0 <___vfprintf_internal_r+0x6e0>
 2003d9c:	dc800e17 	ldw	r18,56(sp)
 2003da0:	dc400d17 	ldw	r17,52(sp)
 2003da4:	dd401904 	addi	r21,sp,100
 2003da8:	003e0406 	br	20035bc <___vfprintf_internal_r+0x4ac>
 2003dac:	d9000517 	ldw	r4,20(sp)
 2003db0:	0102520e 	bge	zero,r4,20046fc <___vfprintf_internal_r+0x15ec>
 2003db4:	d9814717 	ldw	r6,1308(sp)
 2003db8:	21807a16 	blt	r4,r6,2003fa4 <___vfprintf_internal_r+0xe94>
 2003dbc:	d8814117 	ldw	r2,1284(sp)
 2003dc0:	91a5883a 	add	r18,r18,r6
 2003dc4:	8c400044 	addi	r17,r17,1
 2003dc8:	a8800015 	stw	r2,0(r21)
 2003dcc:	008001c4 	movi	r2,7
 2003dd0:	a9800115 	stw	r6,4(r21)
 2003dd4:	dc800e15 	stw	r18,56(sp)
 2003dd8:	dc400d15 	stw	r17,52(sp)
 2003ddc:	1442f616 	blt	r2,r17,20049b8 <___vfprintf_internal_r+0x18a8>
 2003de0:	a8c00204 	addi	r3,r21,8
 2003de4:	d9414717 	ldw	r5,1308(sp)
 2003de8:	2161c83a 	sub	r16,r4,r5
 2003dec:	043f9d0e 	bge	zero,r16,2003c64 <___vfprintf_internal_r+0xb54>
 2003df0:	00800404 	movi	r2,16
 2003df4:	1402130e 	bge	r2,r16,2004644 <___vfprintf_internal_r+0x1534>
 2003df8:	dc400d17 	ldw	r17,52(sp)
 2003dfc:	1027883a 	mov	r19,r2
 2003e00:	07008074 	movhi	fp,513
 2003e04:	e73d2284 	addi	fp,fp,-2934
 2003e08:	050001c4 	movi	r20,7
 2003e0c:	00000306 	br	2003e1c <___vfprintf_internal_r+0xd0c>
 2003e10:	18c00204 	addi	r3,r3,8
 2003e14:	843ffc04 	addi	r16,r16,-16
 2003e18:	9c020d0e 	bge	r19,r16,2004650 <___vfprintf_internal_r+0x1540>
 2003e1c:	94800404 	addi	r18,r18,16
 2003e20:	8c400044 	addi	r17,r17,1
 2003e24:	1f000015 	stw	fp,0(r3)
 2003e28:	1cc00115 	stw	r19,4(r3)
 2003e2c:	dc800e15 	stw	r18,56(sp)
 2003e30:	dc400d15 	stw	r17,52(sp)
 2003e34:	a47ff60e 	bge	r20,r17,2003e10 <___vfprintf_internal_r+0xd00>
 2003e38:	d9014f17 	ldw	r4,1340(sp)
 2003e3c:	b00b883a 	mov	r5,r22
 2003e40:	d9800c04 	addi	r6,sp,48
 2003e44:	20030b80 	call	20030b8 <__sprint_r>
 2003e48:	103e691e 	bne	r2,zero,20037f0 <___vfprintf_internal_r+0x6e0>
 2003e4c:	dc800e17 	ldw	r18,56(sp)
 2003e50:	dc400d17 	ldw	r17,52(sp)
 2003e54:	d8c01904 	addi	r3,sp,100
 2003e58:	003fee06 	br	2003e14 <___vfprintf_internal_r+0xd04>
 2003e5c:	d8814717 	ldw	r2,1308(sp)
 2003e60:	143fffc4 	addi	r16,r2,-1
 2003e64:	043e970e 	bge	zero,r16,20038c4 <___vfprintf_internal_r+0x7b4>
 2003e68:	00800404 	movi	r2,16
 2003e6c:	1400180e 	bge	r2,r16,2003ed0 <___vfprintf_internal_r+0xdc0>
 2003e70:	1029883a 	mov	r20,r2
 2003e74:	07008074 	movhi	fp,513
 2003e78:	e73d2284 	addi	fp,fp,-2934
 2003e7c:	054001c4 	movi	r21,7
 2003e80:	00000306 	br	2003e90 <___vfprintf_internal_r+0xd80>
 2003e84:	9cc00204 	addi	r19,r19,8
 2003e88:	843ffc04 	addi	r16,r16,-16
 2003e8c:	a400120e 	bge	r20,r16,2003ed8 <___vfprintf_internal_r+0xdc8>
 2003e90:	94800404 	addi	r18,r18,16
 2003e94:	8c400044 	addi	r17,r17,1
 2003e98:	9f000015 	stw	fp,0(r19)
 2003e9c:	9d000115 	stw	r20,4(r19)
 2003ea0:	dc800e15 	stw	r18,56(sp)
 2003ea4:	dc400d15 	stw	r17,52(sp)
 2003ea8:	ac7ff60e 	bge	r21,r17,2003e84 <___vfprintf_internal_r+0xd74>
 2003eac:	d9014f17 	ldw	r4,1340(sp)
 2003eb0:	b00b883a 	mov	r5,r22
 2003eb4:	d9800c04 	addi	r6,sp,48
 2003eb8:	20030b80 	call	20030b8 <__sprint_r>
 2003ebc:	103e4c1e 	bne	r2,zero,20037f0 <___vfprintf_internal_r+0x6e0>
 2003ec0:	dc800e17 	ldw	r18,56(sp)
 2003ec4:	dc400d17 	ldw	r17,52(sp)
 2003ec8:	dcc01904 	addi	r19,sp,100
 2003ecc:	003fee06 	br	2003e88 <___vfprintf_internal_r+0xd78>
 2003ed0:	07008074 	movhi	fp,513
 2003ed4:	e73d2284 	addi	fp,fp,-2934
 2003ed8:	9425883a 	add	r18,r18,r16
 2003edc:	8c400044 	addi	r17,r17,1
 2003ee0:	008001c4 	movi	r2,7
 2003ee4:	9f000015 	stw	fp,0(r19)
 2003ee8:	9c000115 	stw	r16,4(r19)
 2003eec:	dc800e15 	stw	r18,56(sp)
 2003ef0:	dc400d15 	stw	r17,52(sp)
 2003ef4:	147e720e 	bge	r2,r17,20038c0 <___vfprintf_internal_r+0x7b0>
 2003ef8:	d9014f17 	ldw	r4,1340(sp)
 2003efc:	b00b883a 	mov	r5,r22
 2003f00:	d9800c04 	addi	r6,sp,48
 2003f04:	20030b80 	call	20030b8 <__sprint_r>
 2003f08:	103e391e 	bne	r2,zero,20037f0 <___vfprintf_internal_r+0x6e0>
 2003f0c:	dc800e17 	ldw	r18,56(sp)
 2003f10:	dc400d17 	ldw	r17,52(sp)
 2003f14:	dcc01904 	addi	r19,sp,100
 2003f18:	003e6a06 	br	20038c4 <___vfprintf_internal_r+0x7b4>
 2003f1c:	d9014f17 	ldw	r4,1340(sp)
 2003f20:	b00b883a 	mov	r5,r22
 2003f24:	d9800c04 	addi	r6,sp,48
 2003f28:	d9c15115 	stw	r7,1348(sp)
 2003f2c:	20030b80 	call	20030b8 <__sprint_r>
 2003f30:	d9c15117 	ldw	r7,1348(sp)
 2003f34:	103e2e1e 	bne	r2,zero,20037f0 <___vfprintf_internal_r+0x6e0>
 2003f38:	dc800e17 	ldw	r18,56(sp)
 2003f3c:	dc400d17 	ldw	r17,52(sp)
 2003f40:	dd401904 	addi	r21,sp,100
 2003f44:	003dba06 	br	2003630 <___vfprintf_internal_r+0x520>
 2003f48:	d9014f17 	ldw	r4,1340(sp)
 2003f4c:	b00b883a 	mov	r5,r22
 2003f50:	d9800c04 	addi	r6,sp,48
 2003f54:	20030b80 	call	20030b8 <__sprint_r>
 2003f58:	103e251e 	bne	r2,zero,20037f0 <___vfprintf_internal_r+0x6e0>
 2003f5c:	dc800e17 	ldw	r18,56(sp)
 2003f60:	dc400d17 	ldw	r17,52(sp)
 2003f64:	dcc01904 	addi	r19,sp,100
 2003f68:	003e4206 	br	2003874 <___vfprintf_internal_r+0x764>
 2003f6c:	d9014f17 	ldw	r4,1340(sp)
 2003f70:	b00b883a 	mov	r5,r22
 2003f74:	d9800c04 	addi	r6,sp,48
 2003f78:	20030b80 	call	20030b8 <__sprint_r>
 2003f7c:	103e1c1e 	bne	r2,zero,20037f0 <___vfprintf_internal_r+0x6e0>
 2003f80:	dc800e17 	ldw	r18,56(sp)
 2003f84:	dc400d17 	ldw	r17,52(sp)
 2003f88:	d8c01904 	addi	r3,sp,100
 2003f8c:	003e2e06 	br	2003848 <___vfprintf_internal_r+0x738>
 2003f90:	d9414c17 	ldw	r5,1328(sp)
 2003f94:	2880004c 	andi	r2,r5,1
 2003f98:	1005003a 	cmpeq	r2,r2,zero
 2003f9c:	103dda1e 	bne	r2,zero,2003708 <___vfprintf_internal_r+0x5f8>
 2003fa0:	003e9f06 	br	2003a20 <___vfprintf_internal_r+0x910>
 2003fa4:	d8c14117 	ldw	r3,1284(sp)
 2003fa8:	9125883a 	add	r18,r18,r4
 2003fac:	8c400044 	addi	r17,r17,1
 2003fb0:	008001c4 	movi	r2,7
 2003fb4:	a8c00015 	stw	r3,0(r21)
 2003fb8:	a9000115 	stw	r4,4(r21)
 2003fbc:	dc800e15 	stw	r18,56(sp)
 2003fc0:	dc400d15 	stw	r17,52(sp)
 2003fc4:	14426616 	blt	r2,r17,2004960 <___vfprintf_internal_r+0x1850>
 2003fc8:	a8c00204 	addi	r3,r21,8
 2003fcc:	d9414917 	ldw	r5,1316(sp)
 2003fd0:	00800044 	movi	r2,1
 2003fd4:	94800044 	addi	r18,r18,1
 2003fd8:	8c400044 	addi	r17,r17,1
 2003fdc:	18800115 	stw	r2,4(r3)
 2003fe0:	008001c4 	movi	r2,7
 2003fe4:	19400015 	stw	r5,0(r3)
 2003fe8:	dc800e15 	stw	r18,56(sp)
 2003fec:	dc400d15 	stw	r17,52(sp)
 2003ff0:	2021883a 	mov	r16,r4
 2003ff4:	14425016 	blt	r2,r17,2004938 <___vfprintf_internal_r+0x1828>
 2003ff8:	19400204 	addi	r5,r3,8
 2003ffc:	d9814717 	ldw	r6,1308(sp)
 2004000:	8c400044 	addi	r17,r17,1
 2004004:	dc400d15 	stw	r17,52(sp)
 2004008:	3107c83a 	sub	r3,r6,r4
 200400c:	d9014117 	ldw	r4,1284(sp)
 2004010:	90e5883a 	add	r18,r18,r3
 2004014:	28c00115 	stw	r3,4(r5)
 2004018:	8105883a 	add	r2,r16,r4
 200401c:	28800015 	stw	r2,0(r5)
 2004020:	008001c4 	movi	r2,7
 2004024:	dc800e15 	stw	r18,56(sp)
 2004028:	147f1d16 	blt	r2,r17,2003ca0 <___vfprintf_internal_r+0xb90>
 200402c:	28c00204 	addi	r3,r5,8
 2004030:	003db506 	br	2003708 <___vfprintf_internal_r+0x5f8>
 2004034:	3c000017 	ldw	r16,0(r7)
 2004038:	3c400117 	ldw	r17,4(r7)
 200403c:	39800204 	addi	r6,r7,8
 2004040:	01000044 	movi	r4,1
 2004044:	d9814015 	stw	r6,1280(sp)
 2004048:	d8000405 	stb	zero,16(sp)
 200404c:	003ebe06 	br	2003b48 <___vfprintf_internal_r+0xa38>
 2004050:	3c000017 	ldw	r16,0(r7)
 2004054:	3c400117 	ldw	r17,4(r7)
 2004058:	38800204 	addi	r2,r7,8
 200405c:	d8814015 	stw	r2,1280(sp)
 2004060:	003eb706 	br	2003b40 <___vfprintf_internal_r+0xa30>
 2004064:	3c000017 	ldw	r16,0(r7)
 2004068:	3c400117 	ldw	r17,4(r7)
 200406c:	39000204 	addi	r4,r7,8
 2004070:	d9014015 	stw	r4,1280(sp)
 2004074:	0009883a 	mov	r4,zero
 2004078:	d8000405 	stb	zero,16(sp)
 200407c:	003eb206 	br	2003b48 <___vfprintf_internal_r+0xa38>
 2004080:	38c00017 	ldw	r3,0(r7)
 2004084:	39c00104 	addi	r7,r7,4
 2004088:	d8c14a15 	stw	r3,1320(sp)
 200408c:	1800d10e 	bge	r3,zero,20043d4 <___vfprintf_internal_r+0x12c4>
 2004090:	00c7c83a 	sub	r3,zero,r3
 2004094:	d8c14a15 	stw	r3,1320(sp)
 2004098:	d9014c17 	ldw	r4,1328(sp)
 200409c:	b8c00007 	ldb	r3,0(r23)
 20040a0:	21000114 	ori	r4,r4,4
 20040a4:	d9014c15 	stw	r4,1328(sp)
 20040a8:	003c9806 	br	200330c <___vfprintf_internal_r+0x1fc>
 20040ac:	d9814c17 	ldw	r6,1328(sp)
 20040b0:	3080080c 	andi	r2,r6,32
 20040b4:	1001f026 	beq	r2,zero,2004878 <___vfprintf_internal_r+0x1768>
 20040b8:	d9014b17 	ldw	r4,1324(sp)
 20040bc:	38800017 	ldw	r2,0(r7)
 20040c0:	39c00104 	addi	r7,r7,4
 20040c4:	d9c14015 	stw	r7,1280(sp)
 20040c8:	2007d7fa 	srai	r3,r4,31
 20040cc:	d9c14017 	ldw	r7,1280(sp)
 20040d0:	11000015 	stw	r4,0(r2)
 20040d4:	10c00115 	stw	r3,4(r2)
 20040d8:	003c6906 	br	2003280 <___vfprintf_internal_r+0x170>
 20040dc:	b8c00007 	ldb	r3,0(r23)
 20040e0:	00801b04 	movi	r2,108
 20040e4:	18824f26 	beq	r3,r2,2004a24 <___vfprintf_internal_r+0x1914>
 20040e8:	d9414c17 	ldw	r5,1328(sp)
 20040ec:	29400414 	ori	r5,r5,16
 20040f0:	d9414c15 	stw	r5,1328(sp)
 20040f4:	003c8506 	br	200330c <___vfprintf_internal_r+0x1fc>
 20040f8:	d9814c17 	ldw	r6,1328(sp)
 20040fc:	b8c00007 	ldb	r3,0(r23)
 2004100:	31800814 	ori	r6,r6,32
 2004104:	d9814c15 	stw	r6,1328(sp)
 2004108:	003c8006 	br	200330c <___vfprintf_internal_r+0x1fc>
 200410c:	d8814c17 	ldw	r2,1328(sp)
 2004110:	3c000017 	ldw	r16,0(r7)
 2004114:	00c01e04 	movi	r3,120
 2004118:	10800094 	ori	r2,r2,2
 200411c:	d8814c15 	stw	r2,1328(sp)
 2004120:	39c00104 	addi	r7,r7,4
 2004124:	01408074 	movhi	r5,513
 2004128:	297d0b04 	addi	r5,r5,-3028
 200412c:	00800c04 	movi	r2,48
 2004130:	0023883a 	mov	r17,zero
 2004134:	01000084 	movi	r4,2
 2004138:	d9c14015 	stw	r7,1280(sp)
 200413c:	d8c14d15 	stw	r3,1332(sp)
 2004140:	d9414415 	stw	r5,1296(sp)
 2004144:	d8800445 	stb	r2,17(sp)
 2004148:	d8c00485 	stb	r3,18(sp)
 200414c:	d8000405 	stb	zero,16(sp)
 2004150:	003e7d06 	br	2003b48 <___vfprintf_internal_r+0xa38>
 2004154:	d8814c17 	ldw	r2,1328(sp)
 2004158:	b8c00007 	ldb	r3,0(r23)
 200415c:	10801014 	ori	r2,r2,64
 2004160:	d8814c15 	stw	r2,1328(sp)
 2004164:	003c6906 	br	200330c <___vfprintf_internal_r+0x1fc>
 2004168:	d9414c17 	ldw	r5,1328(sp)
 200416c:	2880020c 	andi	r2,r5,8
 2004170:	1001df26 	beq	r2,zero,20048f0 <___vfprintf_internal_r+0x17e0>
 2004174:	39800017 	ldw	r6,0(r7)
 2004178:	38800204 	addi	r2,r7,8
 200417c:	d8814015 	stw	r2,1280(sp)
 2004180:	d9814215 	stw	r6,1288(sp)
 2004184:	39c00117 	ldw	r7,4(r7)
 2004188:	d9c14315 	stw	r7,1292(sp)
 200418c:	d9014217 	ldw	r4,1288(sp)
 2004190:	d9414317 	ldw	r5,1292(sp)
 2004194:	20095380 	call	2009538 <__isinfd>
 2004198:	10021726 	beq	r2,zero,20049f8 <___vfprintf_internal_r+0x18e8>
 200419c:	d9014217 	ldw	r4,1288(sp)
 20041a0:	d9414317 	ldw	r5,1292(sp)
 20041a4:	000d883a 	mov	r6,zero
 20041a8:	000f883a 	mov	r7,zero
 20041ac:	2000f180 	call	2000f18 <__ltdf2>
 20041b0:	1002ca16 	blt	r2,zero,2004cdc <___vfprintf_internal_r+0x1bcc>
 20041b4:	d9414d17 	ldw	r5,1332(sp)
 20041b8:	008011c4 	movi	r2,71
 20041bc:	11420a16 	blt	r2,r5,20049e8 <___vfprintf_internal_r+0x18d8>
 20041c0:	01808074 	movhi	r6,513
 20041c4:	31bd1004 	addi	r6,r6,-3008
 20041c8:	d9814115 	stw	r6,1284(sp)
 20041cc:	d9014c17 	ldw	r4,1328(sp)
 20041d0:	00c000c4 	movi	r3,3
 20041d4:	00bfdfc4 	movi	r2,-129
 20041d8:	2088703a 	and	r4,r4,r2
 20041dc:	180f883a 	mov	r7,r3
 20041e0:	d8c14515 	stw	r3,1300(sp)
 20041e4:	d9014c15 	stw	r4,1328(sp)
 20041e8:	d8014615 	stw	zero,1304(sp)
 20041ec:	003e6a06 	br	2003b98 <___vfprintf_internal_r+0xa88>
 20041f0:	38800017 	ldw	r2,0(r7)
 20041f4:	00c00044 	movi	r3,1
 20041f8:	39c00104 	addi	r7,r7,4
 20041fc:	d9c14015 	stw	r7,1280(sp)
 2004200:	d9000f04 	addi	r4,sp,60
 2004204:	180f883a 	mov	r7,r3
 2004208:	d8c14515 	stw	r3,1300(sp)
 200420c:	d9014115 	stw	r4,1284(sp)
 2004210:	d8800f05 	stb	r2,60(sp)
 2004214:	d8000405 	stb	zero,16(sp)
 2004218:	003cac06 	br	20034cc <___vfprintf_internal_r+0x3bc>
 200421c:	01408074 	movhi	r5,513
 2004220:	297d1604 	addi	r5,r5,-2984
 2004224:	d9414415 	stw	r5,1296(sp)
 2004228:	d9814c17 	ldw	r6,1328(sp)
 200422c:	3080080c 	andi	r2,r6,32
 2004230:	1000f926 	beq	r2,zero,2004618 <___vfprintf_internal_r+0x1508>
 2004234:	3c000017 	ldw	r16,0(r7)
 2004238:	3c400117 	ldw	r17,4(r7)
 200423c:	38800204 	addi	r2,r7,8
 2004240:	d8814015 	stw	r2,1280(sp)
 2004244:	d9414c17 	ldw	r5,1328(sp)
 2004248:	2880004c 	andi	r2,r5,1
 200424c:	1005003a 	cmpeq	r2,r2,zero
 2004250:	1000b31e 	bne	r2,zero,2004520 <___vfprintf_internal_r+0x1410>
 2004254:	8444b03a 	or	r2,r16,r17
 2004258:	1000b126 	beq	r2,zero,2004520 <___vfprintf_internal_r+0x1410>
 200425c:	d9814d17 	ldw	r6,1332(sp)
 2004260:	29400094 	ori	r5,r5,2
 2004264:	00800c04 	movi	r2,48
 2004268:	01000084 	movi	r4,2
 200426c:	d9414c15 	stw	r5,1328(sp)
 2004270:	d8800445 	stb	r2,17(sp)
 2004274:	d9800485 	stb	r6,18(sp)
 2004278:	d8000405 	stb	zero,16(sp)
 200427c:	003e3206 	br	2003b48 <___vfprintf_internal_r+0xa38>
 2004280:	01808074 	movhi	r6,513
 2004284:	31bd0b04 	addi	r6,r6,-3028
 2004288:	d9814415 	stw	r6,1296(sp)
 200428c:	003fe606 	br	2004228 <___vfprintf_internal_r+0x1118>
 2004290:	00800ac4 	movi	r2,43
 2004294:	d8800405 	stb	r2,16(sp)
 2004298:	b8c00007 	ldb	r3,0(r23)
 200429c:	003c1b06 	br	200330c <___vfprintf_internal_r+0x1fc>
 20042a0:	d8814c17 	ldw	r2,1328(sp)
 20042a4:	b8c00007 	ldb	r3,0(r23)
 20042a8:	10800054 	ori	r2,r2,1
 20042ac:	d8814c15 	stw	r2,1328(sp)
 20042b0:	003c1606 	br	200330c <___vfprintf_internal_r+0x1fc>
 20042b4:	d8800407 	ldb	r2,16(sp)
 20042b8:	1000461e 	bne	r2,zero,20043d4 <___vfprintf_internal_r+0x12c4>
 20042bc:	00800804 	movi	r2,32
 20042c0:	d8800405 	stb	r2,16(sp)
 20042c4:	b8c00007 	ldb	r3,0(r23)
 20042c8:	003c1006 	br	200330c <___vfprintf_internal_r+0x1fc>
 20042cc:	d9814c17 	ldw	r6,1328(sp)
 20042d0:	b8c00007 	ldb	r3,0(r23)
 20042d4:	31800214 	ori	r6,r6,8
 20042d8:	d9814c15 	stw	r6,1328(sp)
 20042dc:	003c0b06 	br	200330c <___vfprintf_internal_r+0x1fc>
 20042e0:	0007883a 	mov	r3,zero
 20042e4:	01000244 	movi	r4,9
 20042e8:	188002a4 	muli	r2,r3,10
 20042ec:	b8c00007 	ldb	r3,0(r23)
 20042f0:	d9814d17 	ldw	r6,1332(sp)
 20042f4:	bdc00044 	addi	r23,r23,1
 20042f8:	d8c14d15 	stw	r3,1332(sp)
 20042fc:	d9414d17 	ldw	r5,1332(sp)
 2004300:	3085883a 	add	r2,r6,r2
 2004304:	10fff404 	addi	r3,r2,-48
 2004308:	28bff404 	addi	r2,r5,-48
 200430c:	20bff62e 	bgeu	r4,r2,20042e8 <___vfprintf_internal_r+0x11d8>
 2004310:	d8c14a15 	stw	r3,1320(sp)
 2004314:	003bff06 	br	2003314 <___vfprintf_internal_r+0x204>
 2004318:	d9414c17 	ldw	r5,1328(sp)
 200431c:	b8c00007 	ldb	r3,0(r23)
 2004320:	29402014 	ori	r5,r5,128
 2004324:	d9414c15 	stw	r5,1328(sp)
 2004328:	003bf806 	br	200330c <___vfprintf_internal_r+0x1fc>
 200432c:	b8c00007 	ldb	r3,0(r23)
 2004330:	00800a84 	movi	r2,42
 2004334:	bdc00044 	addi	r23,r23,1
 2004338:	18831526 	beq	r3,r2,2004f90 <___vfprintf_internal_r+0x1e80>
 200433c:	d8c14d15 	stw	r3,1332(sp)
 2004340:	18bff404 	addi	r2,r3,-48
 2004344:	00c00244 	movi	r3,9
 2004348:	18827836 	bltu	r3,r2,2004d2c <___vfprintf_internal_r+0x1c1c>
 200434c:	000d883a 	mov	r6,zero
 2004350:	308002a4 	muli	r2,r6,10
 2004354:	b9800007 	ldb	r6,0(r23)
 2004358:	d9414d17 	ldw	r5,1332(sp)
 200435c:	bdc00044 	addi	r23,r23,1
 2004360:	d9814d15 	stw	r6,1332(sp)
 2004364:	d9014d17 	ldw	r4,1332(sp)
 2004368:	1145883a 	add	r2,r2,r5
 200436c:	11bff404 	addi	r6,r2,-48
 2004370:	20bff404 	addi	r2,r4,-48
 2004374:	18bff62e 	bgeu	r3,r2,2004350 <___vfprintf_internal_r+0x1240>
 2004378:	3027883a 	mov	r19,r6
 200437c:	303be50e 	bge	r6,zero,2003314 <___vfprintf_internal_r+0x204>
 2004380:	04ffffc4 	movi	r19,-1
 2004384:	003be306 	br	2003314 <___vfprintf_internal_r+0x204>
 2004388:	d8000405 	stb	zero,16(sp)
 200438c:	39800017 	ldw	r6,0(r7)
 2004390:	39c00104 	addi	r7,r7,4
 2004394:	d9c14015 	stw	r7,1280(sp)
 2004398:	d9814115 	stw	r6,1284(sp)
 200439c:	3001c926 	beq	r6,zero,2004ac4 <___vfprintf_internal_r+0x19b4>
 20043a0:	98000e16 	blt	r19,zero,20043dc <___vfprintf_internal_r+0x12cc>
 20043a4:	d9014117 	ldw	r4,1284(sp)
 20043a8:	000b883a 	mov	r5,zero
 20043ac:	980d883a 	mov	r6,r19
 20043b0:	2007bdc0 	call	2007bdc <memchr>
 20043b4:	10025926 	beq	r2,zero,2004d1c <___vfprintf_internal_r+0x1c0c>
 20043b8:	d8c14117 	ldw	r3,1284(sp)
 20043bc:	10cfc83a 	sub	r7,r2,r3
 20043c0:	99c19e16 	blt	r19,r7,2004a3c <___vfprintf_internal_r+0x192c>
 20043c4:	d9c14515 	stw	r7,1300(sp)
 20043c8:	38000916 	blt	r7,zero,20043f0 <___vfprintf_internal_r+0x12e0>
 20043cc:	d8014615 	stw	zero,1304(sp)
 20043d0:	003df106 	br	2003b98 <___vfprintf_internal_r+0xa88>
 20043d4:	b8c00007 	ldb	r3,0(r23)
 20043d8:	003bcc06 	br	200330c <___vfprintf_internal_r+0x1fc>
 20043dc:	d9014117 	ldw	r4,1284(sp)
 20043e0:	2002fe80 	call	2002fe8 <strlen>
 20043e4:	d8814515 	stw	r2,1300(sp)
 20043e8:	100f883a 	mov	r7,r2
 20043ec:	103ff70e 	bge	r2,zero,20043cc <___vfprintf_internal_r+0x12bc>
 20043f0:	d8014515 	stw	zero,1300(sp)
 20043f4:	d8014615 	stw	zero,1304(sp)
 20043f8:	003de706 	br	2003b98 <___vfprintf_internal_r+0xa88>
 20043fc:	20c03fcc 	andi	r3,r4,255
 2004400:	00800044 	movi	r2,1
 2004404:	18802d26 	beq	r3,r2,20044bc <___vfprintf_internal_r+0x13ac>
 2004408:	18800e36 	bltu	r3,r2,2004444 <___vfprintf_internal_r+0x1334>
 200440c:	00800084 	movi	r2,2
 2004410:	1880fa26 	beq	r3,r2,20047fc <___vfprintf_internal_r+0x16ec>
 2004414:	01008074 	movhi	r4,513
 2004418:	213d1b04 	addi	r4,r4,-2964
 200441c:	2002fe80 	call	2002fe8 <strlen>
 2004420:	100f883a 	mov	r7,r2
 2004424:	dcc14515 	stw	r19,1300(sp)
 2004428:	9880010e 	bge	r19,r2,2004430 <___vfprintf_internal_r+0x1320>
 200442c:	d8814515 	stw	r2,1300(sp)
 2004430:	00808074 	movhi	r2,513
 2004434:	10bd1b04 	addi	r2,r2,-2964
 2004438:	dcc14615 	stw	r19,1304(sp)
 200443c:	d8814115 	stw	r2,1284(sp)
 2004440:	003dd506 	br	2003b98 <___vfprintf_internal_r+0xa88>
 2004444:	d9401904 	addi	r5,sp,100
 2004448:	dd000f04 	addi	r20,sp,60
 200444c:	d9414115 	stw	r5,1284(sp)
 2004450:	880a977a 	slli	r5,r17,29
 2004454:	d9814117 	ldw	r6,1284(sp)
 2004458:	8004d0fa 	srli	r2,r16,3
 200445c:	8806d0fa 	srli	r3,r17,3
 2004460:	810001cc 	andi	r4,r16,7
 2004464:	2884b03a 	or	r2,r5,r2
 2004468:	31bfffc4 	addi	r6,r6,-1
 200446c:	21000c04 	addi	r4,r4,48
 2004470:	d9814115 	stw	r6,1284(sp)
 2004474:	10cab03a 	or	r5,r2,r3
 2004478:	31000005 	stb	r4,0(r6)
 200447c:	1021883a 	mov	r16,r2
 2004480:	1823883a 	mov	r17,r3
 2004484:	283ff21e 	bne	r5,zero,2004450 <___vfprintf_internal_r+0x1340>
 2004488:	d8c14c17 	ldw	r3,1328(sp)
 200448c:	1880004c 	andi	r2,r3,1
 2004490:	1005003a 	cmpeq	r2,r2,zero
 2004494:	103db91e 	bne	r2,zero,2003b7c <___vfprintf_internal_r+0xa6c>
 2004498:	20803fcc 	andi	r2,r4,255
 200449c:	1080201c 	xori	r2,r2,128
 20044a0:	10bfe004 	addi	r2,r2,-128
 20044a4:	00c00c04 	movi	r3,48
 20044a8:	10fdb426 	beq	r2,r3,2003b7c <___vfprintf_internal_r+0xa6c>
 20044ac:	31bfffc4 	addi	r6,r6,-1
 20044b0:	d9814115 	stw	r6,1284(sp)
 20044b4:	30c00005 	stb	r3,0(r6)
 20044b8:	003db006 	br	2003b7c <___vfprintf_internal_r+0xa6c>
 20044bc:	88800068 	cmpgeui	r2,r17,1
 20044c0:	10002c1e 	bne	r2,zero,2004574 <___vfprintf_internal_r+0x1464>
 20044c4:	8800021e 	bne	r17,zero,20044d0 <___vfprintf_internal_r+0x13c0>
 20044c8:	00800244 	movi	r2,9
 20044cc:	14002936 	bltu	r2,r16,2004574 <___vfprintf_internal_r+0x1464>
 20044d0:	d90018c4 	addi	r4,sp,99
 20044d4:	dd000f04 	addi	r20,sp,60
 20044d8:	d9014115 	stw	r4,1284(sp)
 20044dc:	d9014117 	ldw	r4,1284(sp)
 20044e0:	80800c04 	addi	r2,r16,48
 20044e4:	20800005 	stb	r2,0(r4)
 20044e8:	003da406 	br	2003b7c <___vfprintf_internal_r+0xa6c>
 20044ec:	dc400d17 	ldw	r17,52(sp)
 20044f0:	07008074 	movhi	fp,513
 20044f4:	e73d2284 	addi	fp,fp,-2934
 20044f8:	9425883a 	add	r18,r18,r16
 20044fc:	8c400044 	addi	r17,r17,1
 2004500:	008001c4 	movi	r2,7
 2004504:	1f000015 	stw	fp,0(r3)
 2004508:	1c000115 	stw	r16,4(r3)
 200450c:	dc800e15 	stw	r18,56(sp)
 2004510:	dc400d15 	stw	r17,52(sp)
 2004514:	147de216 	blt	r2,r17,2003ca0 <___vfprintf_internal_r+0xb90>
 2004518:	18c00204 	addi	r3,r3,8
 200451c:	003c7a06 	br	2003708 <___vfprintf_internal_r+0x5f8>
 2004520:	01000084 	movi	r4,2
 2004524:	d8000405 	stb	zero,16(sp)
 2004528:	003d8706 	br	2003b48 <___vfprintf_internal_r+0xa38>
 200452c:	d9814c17 	ldw	r6,1328(sp)
 2004530:	30c4703a 	and	r2,r6,r3
 2004534:	1005003a 	cmpeq	r2,r2,zero
 2004538:	103cb926 	beq	r2,zero,2003820 <___vfprintf_internal_r+0x710>
 200453c:	d9014117 	ldw	r4,1284(sp)
 2004540:	94800044 	addi	r18,r18,1
 2004544:	8c400044 	addi	r17,r17,1
 2004548:	008001c4 	movi	r2,7
 200454c:	a9000015 	stw	r4,0(r21)
 2004550:	a8c00115 	stw	r3,4(r21)
 2004554:	dc800e15 	stw	r18,56(sp)
 2004558:	dc400d15 	stw	r17,52(sp)
 200455c:	147e6616 	blt	r2,r17,2003ef8 <___vfprintf_internal_r+0xde8>
 2004560:	acc00204 	addi	r19,r21,8
 2004564:	003cd706 	br	20038c4 <___vfprintf_internal_r+0x7b4>
 2004568:	07008074 	movhi	fp,513
 200456c:	e73d2284 	addi	fp,fp,-2934
 2004570:	003c4f06 	br	20036b0 <___vfprintf_internal_r+0x5a0>
 2004574:	dd000f04 	addi	r20,sp,60
 2004578:	dc801904 	addi	r18,sp,100
 200457c:	8009883a 	mov	r4,r16
 2004580:	880b883a 	mov	r5,r17
 2004584:	01800284 	movi	r6,10
 2004588:	000f883a 	mov	r7,zero
 200458c:	2009e180 	call	2009e18 <__umoddi3>
 2004590:	12000c04 	addi	r8,r2,48
 2004594:	94bfffc4 	addi	r18,r18,-1
 2004598:	8009883a 	mov	r4,r16
 200459c:	880b883a 	mov	r5,r17
 20045a0:	01800284 	movi	r6,10
 20045a4:	000f883a 	mov	r7,zero
 20045a8:	92000005 	stb	r8,0(r18)
 20045ac:	200983c0 	call	200983c <__udivdi3>
 20045b0:	1009883a 	mov	r4,r2
 20045b4:	1021883a 	mov	r16,r2
 20045b8:	18800068 	cmpgeui	r2,r3,1
 20045bc:	1823883a 	mov	r17,r3
 20045c0:	103fee1e 	bne	r2,zero,200457c <___vfprintf_internal_r+0x146c>
 20045c4:	1800021e 	bne	r3,zero,20045d0 <___vfprintf_internal_r+0x14c0>
 20045c8:	00800244 	movi	r2,9
 20045cc:	113feb36 	bltu	r2,r4,200457c <___vfprintf_internal_r+0x146c>
 20045d0:	94bfffc4 	addi	r18,r18,-1
 20045d4:	dc814115 	stw	r18,1284(sp)
 20045d8:	003fc006 	br	20044dc <___vfprintf_internal_r+0x13cc>
 20045dc:	d9014c17 	ldw	r4,1328(sp)
 20045e0:	2080004c 	andi	r2,r4,1
 20045e4:	10009a1e 	bne	r2,zero,2004850 <___vfprintf_internal_r+0x1740>
 20045e8:	d9401904 	addi	r5,sp,100
 20045ec:	dd000f04 	addi	r20,sp,60
 20045f0:	d9414115 	stw	r5,1284(sp)
 20045f4:	003d6106 	br	2003b7c <___vfprintf_internal_r+0xa6c>
 20045f8:	d9014f17 	ldw	r4,1340(sp)
 20045fc:	b00b883a 	mov	r5,r22
 2004600:	d9800c04 	addi	r6,sp,48
 2004604:	20030b80 	call	20030b8 <__sprint_r>
 2004608:	103c791e 	bne	r2,zero,20037f0 <___vfprintf_internal_r+0x6e0>
 200460c:	dc800e17 	ldw	r18,56(sp)
 2004610:	d8c01904 	addi	r3,sp,100
 2004614:	003cff06 	br	2003a14 <___vfprintf_internal_r+0x904>
 2004618:	d8c14c17 	ldw	r3,1328(sp)
 200461c:	1880040c 	andi	r2,r3,16
 2004620:	1000711e 	bne	r2,zero,20047e8 <___vfprintf_internal_r+0x16d8>
 2004624:	d9014c17 	ldw	r4,1328(sp)
 2004628:	2080100c 	andi	r2,r4,64
 200462c:	10006e26 	beq	r2,zero,20047e8 <___vfprintf_internal_r+0x16d8>
 2004630:	3c00000b 	ldhu	r16,0(r7)
 2004634:	0023883a 	mov	r17,zero
 2004638:	39c00104 	addi	r7,r7,4
 200463c:	d9c14015 	stw	r7,1280(sp)
 2004640:	003f0006 	br	2004244 <___vfprintf_internal_r+0x1134>
 2004644:	dc400d17 	ldw	r17,52(sp)
 2004648:	07008074 	movhi	fp,513
 200464c:	e73d2284 	addi	fp,fp,-2934
 2004650:	9425883a 	add	r18,r18,r16
 2004654:	8c400044 	addi	r17,r17,1
 2004658:	008001c4 	movi	r2,7
 200465c:	1f000015 	stw	fp,0(r3)
 2004660:	1c000115 	stw	r16,4(r3)
 2004664:	dc800e15 	stw	r18,56(sp)
 2004668:	dc400d15 	stw	r17,52(sp)
 200466c:	147d7616 	blt	r2,r17,2003c48 <___vfprintf_internal_r+0xb38>
 2004670:	18c00204 	addi	r3,r3,8
 2004674:	003d7b06 	br	2003c64 <___vfprintf_internal_r+0xb54>
 2004678:	dc800e17 	ldw	r18,56(sp)
 200467c:	dc400d17 	ldw	r17,52(sp)
 2004680:	07008074 	movhi	fp,513
 2004684:	e73d2684 	addi	fp,fp,-2918
 2004688:	003bc006 	br	200358c <___vfprintf_internal_r+0x47c>
 200468c:	d9014f17 	ldw	r4,1340(sp)
 2004690:	b00b883a 	mov	r5,r22
 2004694:	d9800c04 	addi	r6,sp,48
 2004698:	20030b80 	call	20030b8 <__sprint_r>
 200469c:	103c541e 	bne	r2,zero,20037f0 <___vfprintf_internal_r+0x6e0>
 20046a0:	dc800e17 	ldw	r18,56(sp)
 20046a4:	d8c01904 	addi	r3,sp,100
 20046a8:	003ce906 	br	2003a50 <___vfprintf_internal_r+0x940>
 20046ac:	3c000017 	ldw	r16,0(r7)
 20046b0:	0009883a 	mov	r4,zero
 20046b4:	39c00104 	addi	r7,r7,4
 20046b8:	0023883a 	mov	r17,zero
 20046bc:	d9c14015 	stw	r7,1280(sp)
 20046c0:	d8000405 	stb	zero,16(sp)
 20046c4:	003d2006 	br	2003b48 <___vfprintf_internal_r+0xa38>
 20046c8:	38800017 	ldw	r2,0(r7)
 20046cc:	39c00104 	addi	r7,r7,4
 20046d0:	d9c14015 	stw	r7,1280(sp)
 20046d4:	1023d7fa 	srai	r17,r2,31
 20046d8:	1021883a 	mov	r16,r2
 20046dc:	003d1806 	br	2003b40 <___vfprintf_internal_r+0xa30>
 20046e0:	3c000017 	ldw	r16,0(r7)
 20046e4:	01000044 	movi	r4,1
 20046e8:	39c00104 	addi	r7,r7,4
 20046ec:	0023883a 	mov	r17,zero
 20046f0:	d9c14015 	stw	r7,1280(sp)
 20046f4:	d8000405 	stb	zero,16(sp)
 20046f8:	003d1306 	br	2003b48 <___vfprintf_internal_r+0xa38>
 20046fc:	00808074 	movhi	r2,513
 2004700:	10bd2204 	addi	r2,r2,-2936
 2004704:	94800044 	addi	r18,r18,1
 2004708:	8c400044 	addi	r17,r17,1
 200470c:	a8800015 	stw	r2,0(r21)
 2004710:	00c00044 	movi	r3,1
 2004714:	008001c4 	movi	r2,7
 2004718:	a8c00115 	stw	r3,4(r21)
 200471c:	dc800e15 	stw	r18,56(sp)
 2004720:	dc400d15 	stw	r17,52(sp)
 2004724:	1440ca16 	blt	r2,r17,2004a50 <___vfprintf_internal_r+0x1940>
 2004728:	a8c00204 	addi	r3,r21,8
 200472c:	2000061e 	bne	r4,zero,2004748 <___vfprintf_internal_r+0x1638>
 2004730:	d9414717 	ldw	r5,1308(sp)
 2004734:	2800041e 	bne	r5,zero,2004748 <___vfprintf_internal_r+0x1638>
 2004738:	d9814c17 	ldw	r6,1328(sp)
 200473c:	3080004c 	andi	r2,r6,1
 2004740:	1005003a 	cmpeq	r2,r2,zero
 2004744:	103bf01e 	bne	r2,zero,2003708 <___vfprintf_internal_r+0x5f8>
 2004748:	00800044 	movi	r2,1
 200474c:	dc400d17 	ldw	r17,52(sp)
 2004750:	18800115 	stw	r2,4(r3)
 2004754:	d8814917 	ldw	r2,1316(sp)
 2004758:	94800044 	addi	r18,r18,1
 200475c:	8c400044 	addi	r17,r17,1
 2004760:	18800015 	stw	r2,0(r3)
 2004764:	008001c4 	movi	r2,7
 2004768:	dc800e15 	stw	r18,56(sp)
 200476c:	dc400d15 	stw	r17,52(sp)
 2004770:	1440ca16 	blt	r2,r17,2004a9c <___vfprintf_internal_r+0x198c>
 2004774:	18c00204 	addi	r3,r3,8
 2004778:	0121c83a 	sub	r16,zero,r4
 200477c:	0400500e 	bge	zero,r16,20048c0 <___vfprintf_internal_r+0x17b0>
 2004780:	00800404 	movi	r2,16
 2004784:	1400800e 	bge	r2,r16,2004988 <___vfprintf_internal_r+0x1878>
 2004788:	1027883a 	mov	r19,r2
 200478c:	07008074 	movhi	fp,513
 2004790:	e73d2284 	addi	fp,fp,-2934
 2004794:	050001c4 	movi	r20,7
 2004798:	00000306 	br	20047a8 <___vfprintf_internal_r+0x1698>
 200479c:	18c00204 	addi	r3,r3,8
 20047a0:	843ffc04 	addi	r16,r16,-16
 20047a4:	9c007a0e 	bge	r19,r16,2004990 <___vfprintf_internal_r+0x1880>
 20047a8:	94800404 	addi	r18,r18,16
 20047ac:	8c400044 	addi	r17,r17,1
 20047b0:	1f000015 	stw	fp,0(r3)
 20047b4:	1cc00115 	stw	r19,4(r3)
 20047b8:	dc800e15 	stw	r18,56(sp)
 20047bc:	dc400d15 	stw	r17,52(sp)
 20047c0:	a47ff60e 	bge	r20,r17,200479c <___vfprintf_internal_r+0x168c>
 20047c4:	d9014f17 	ldw	r4,1340(sp)
 20047c8:	b00b883a 	mov	r5,r22
 20047cc:	d9800c04 	addi	r6,sp,48
 20047d0:	20030b80 	call	20030b8 <__sprint_r>
 20047d4:	103c061e 	bne	r2,zero,20037f0 <___vfprintf_internal_r+0x6e0>
 20047d8:	dc800e17 	ldw	r18,56(sp)
 20047dc:	dc400d17 	ldw	r17,52(sp)
 20047e0:	d8c01904 	addi	r3,sp,100
 20047e4:	003fee06 	br	20047a0 <___vfprintf_internal_r+0x1690>
 20047e8:	3c000017 	ldw	r16,0(r7)
 20047ec:	0023883a 	mov	r17,zero
 20047f0:	39c00104 	addi	r7,r7,4
 20047f4:	d9c14015 	stw	r7,1280(sp)
 20047f8:	003e9206 	br	2004244 <___vfprintf_internal_r+0x1134>
 20047fc:	d9401904 	addi	r5,sp,100
 2004800:	dd000f04 	addi	r20,sp,60
 2004804:	d9414115 	stw	r5,1284(sp)
 2004808:	d9814417 	ldw	r6,1296(sp)
 200480c:	880a973a 	slli	r5,r17,28
 2004810:	8004d13a 	srli	r2,r16,4
 2004814:	810003cc 	andi	r4,r16,15
 2004818:	3109883a 	add	r4,r6,r4
 200481c:	2884b03a 	or	r2,r5,r2
 2004820:	21400003 	ldbu	r5,0(r4)
 2004824:	d9014117 	ldw	r4,1284(sp)
 2004828:	8806d13a 	srli	r3,r17,4
 200482c:	1021883a 	mov	r16,r2
 2004830:	213fffc4 	addi	r4,r4,-1
 2004834:	d9014115 	stw	r4,1284(sp)
 2004838:	d9814117 	ldw	r6,1284(sp)
 200483c:	10c8b03a 	or	r4,r2,r3
 2004840:	1823883a 	mov	r17,r3
 2004844:	31400005 	stb	r5,0(r6)
 2004848:	203fef1e 	bne	r4,zero,2004808 <___vfprintf_internal_r+0x16f8>
 200484c:	003ccb06 	br	2003b7c <___vfprintf_internal_r+0xa6c>
 2004850:	00800c04 	movi	r2,48
 2004854:	d98018c4 	addi	r6,sp,99
 2004858:	dd000f04 	addi	r20,sp,60
 200485c:	d88018c5 	stb	r2,99(sp)
 2004860:	d9814115 	stw	r6,1284(sp)
 2004864:	003cc506 	br	2003b7c <___vfprintf_internal_r+0xa6c>
 2004868:	dc400d17 	ldw	r17,52(sp)
 200486c:	07008074 	movhi	fp,513
 2004870:	e73d2684 	addi	fp,fp,-2918
 2004874:	003bc706 	br	2003794 <___vfprintf_internal_r+0x684>
 2004878:	d9414c17 	ldw	r5,1328(sp)
 200487c:	2880040c 	andi	r2,r5,16
 2004880:	10007c26 	beq	r2,zero,2004a74 <___vfprintf_internal_r+0x1964>
 2004884:	38800017 	ldw	r2,0(r7)
 2004888:	39c00104 	addi	r7,r7,4
 200488c:	d9c14015 	stw	r7,1280(sp)
 2004890:	d9814b17 	ldw	r6,1324(sp)
 2004894:	d9c14017 	ldw	r7,1280(sp)
 2004898:	11800015 	stw	r6,0(r2)
 200489c:	003a7806 	br	2003280 <___vfprintf_internal_r+0x170>
 20048a0:	d9014f17 	ldw	r4,1340(sp)
 20048a4:	b00b883a 	mov	r5,r22
 20048a8:	d9800c04 	addi	r6,sp,48
 20048ac:	20030b80 	call	20030b8 <__sprint_r>
 20048b0:	103bcf1e 	bne	r2,zero,20037f0 <___vfprintf_internal_r+0x6e0>
 20048b4:	dc800e17 	ldw	r18,56(sp)
 20048b8:	dc400d17 	ldw	r17,52(sp)
 20048bc:	d8c01904 	addi	r3,sp,100
 20048c0:	d9014717 	ldw	r4,1308(sp)
 20048c4:	d9414117 	ldw	r5,1284(sp)
 20048c8:	8c400044 	addi	r17,r17,1
 20048cc:	9125883a 	add	r18,r18,r4
 20048d0:	008001c4 	movi	r2,7
 20048d4:	19400015 	stw	r5,0(r3)
 20048d8:	19000115 	stw	r4,4(r3)
 20048dc:	dc800e15 	stw	r18,56(sp)
 20048e0:	dc400d15 	stw	r17,52(sp)
 20048e4:	147cee16 	blt	r2,r17,2003ca0 <___vfprintf_internal_r+0xb90>
 20048e8:	18c00204 	addi	r3,r3,8
 20048ec:	003b8606 	br	2003708 <___vfprintf_internal_r+0x5f8>
 20048f0:	38c00017 	ldw	r3,0(r7)
 20048f4:	39000204 	addi	r4,r7,8
 20048f8:	d9014015 	stw	r4,1280(sp)
 20048fc:	d8c14215 	stw	r3,1288(sp)
 2004900:	39c00117 	ldw	r7,4(r7)
 2004904:	d9c14315 	stw	r7,1292(sp)
 2004908:	003e2006 	br	200418c <___vfprintf_internal_r+0x107c>
 200490c:	0005883a 	mov	r2,zero
 2004910:	1409c83a 	sub	r4,r2,r16
 2004914:	1105803a 	cmpltu	r2,r2,r4
 2004918:	044bc83a 	sub	r5,zero,r17
 200491c:	2885c83a 	sub	r2,r5,r2
 2004920:	2021883a 	mov	r16,r4
 2004924:	1023883a 	mov	r17,r2
 2004928:	01000044 	movi	r4,1
 200492c:	00800b44 	movi	r2,45
 2004930:	d8800405 	stb	r2,16(sp)
 2004934:	003c8406 	br	2003b48 <___vfprintf_internal_r+0xa38>
 2004938:	d9014f17 	ldw	r4,1340(sp)
 200493c:	b00b883a 	mov	r5,r22
 2004940:	d9800c04 	addi	r6,sp,48
 2004944:	20030b80 	call	20030b8 <__sprint_r>
 2004948:	103ba91e 	bne	r2,zero,20037f0 <___vfprintf_internal_r+0x6e0>
 200494c:	dc800e17 	ldw	r18,56(sp)
 2004950:	dc400d17 	ldw	r17,52(sp)
 2004954:	d9000517 	ldw	r4,20(sp)
 2004958:	d9401904 	addi	r5,sp,100
 200495c:	003da706 	br	2003ffc <___vfprintf_internal_r+0xeec>
 2004960:	d9014f17 	ldw	r4,1340(sp)
 2004964:	b00b883a 	mov	r5,r22
 2004968:	d9800c04 	addi	r6,sp,48
 200496c:	20030b80 	call	20030b8 <__sprint_r>
 2004970:	103b9f1e 	bne	r2,zero,20037f0 <___vfprintf_internal_r+0x6e0>
 2004974:	dc800e17 	ldw	r18,56(sp)
 2004978:	dc400d17 	ldw	r17,52(sp)
 200497c:	d9000517 	ldw	r4,20(sp)
 2004980:	d8c01904 	addi	r3,sp,100
 2004984:	003d9106 	br	2003fcc <___vfprintf_internal_r+0xebc>
 2004988:	07008074 	movhi	fp,513
 200498c:	e73d2284 	addi	fp,fp,-2934
 2004990:	9425883a 	add	r18,r18,r16
 2004994:	8c400044 	addi	r17,r17,1
 2004998:	008001c4 	movi	r2,7
 200499c:	1f000015 	stw	fp,0(r3)
 20049a0:	1c000115 	stw	r16,4(r3)
 20049a4:	dc800e15 	stw	r18,56(sp)
 20049a8:	dc400d15 	stw	r17,52(sp)
 20049ac:	147fbc16 	blt	r2,r17,20048a0 <___vfprintf_internal_r+0x1790>
 20049b0:	18c00204 	addi	r3,r3,8
 20049b4:	003fc206 	br	20048c0 <___vfprintf_internal_r+0x17b0>
 20049b8:	d9014f17 	ldw	r4,1340(sp)
 20049bc:	b00b883a 	mov	r5,r22
 20049c0:	d9800c04 	addi	r6,sp,48
 20049c4:	20030b80 	call	20030b8 <__sprint_r>
 20049c8:	103b891e 	bne	r2,zero,20037f0 <___vfprintf_internal_r+0x6e0>
 20049cc:	dc800e17 	ldw	r18,56(sp)
 20049d0:	d9000517 	ldw	r4,20(sp)
 20049d4:	d8c01904 	addi	r3,sp,100
 20049d8:	003d0206 	br	2003de4 <___vfprintf_internal_r+0xcd4>
 20049dc:	07008074 	movhi	fp,513
 20049e0:	e73d2284 	addi	fp,fp,-2934
 20049e4:	003be406 	br	2003978 <___vfprintf_internal_r+0x868>
 20049e8:	00808074 	movhi	r2,513
 20049ec:	10bd1104 	addi	r2,r2,-3004
 20049f0:	d8814115 	stw	r2,1284(sp)
 20049f4:	003df506 	br	20041cc <___vfprintf_internal_r+0x10bc>
 20049f8:	d9014217 	ldw	r4,1288(sp)
 20049fc:	d9414317 	ldw	r5,1292(sp)
 2004a00:	20095780 	call	2009578 <__isnand>
 2004a04:	10003926 	beq	r2,zero,2004aec <___vfprintf_internal_r+0x19dc>
 2004a08:	d9414d17 	ldw	r5,1332(sp)
 2004a0c:	008011c4 	movi	r2,71
 2004a10:	1140ce16 	blt	r2,r5,2004d4c <___vfprintf_internal_r+0x1c3c>
 2004a14:	01808074 	movhi	r6,513
 2004a18:	31bd1204 	addi	r6,r6,-3000
 2004a1c:	d9814115 	stw	r6,1284(sp)
 2004a20:	003dea06 	br	20041cc <___vfprintf_internal_r+0x10bc>
 2004a24:	d9014c17 	ldw	r4,1328(sp)
 2004a28:	bdc00044 	addi	r23,r23,1
 2004a2c:	b8c00007 	ldb	r3,0(r23)
 2004a30:	21000814 	ori	r4,r4,32
 2004a34:	d9014c15 	stw	r4,1328(sp)
 2004a38:	003a3406 	br	200330c <___vfprintf_internal_r+0x1fc>
 2004a3c:	dcc14515 	stw	r19,1300(sp)
 2004a40:	98011016 	blt	r19,zero,2004e84 <___vfprintf_internal_r+0x1d74>
 2004a44:	980f883a 	mov	r7,r19
 2004a48:	d8014615 	stw	zero,1304(sp)
 2004a4c:	003c5206 	br	2003b98 <___vfprintf_internal_r+0xa88>
 2004a50:	d9014f17 	ldw	r4,1340(sp)
 2004a54:	b00b883a 	mov	r5,r22
 2004a58:	d9800c04 	addi	r6,sp,48
 2004a5c:	20030b80 	call	20030b8 <__sprint_r>
 2004a60:	103b631e 	bne	r2,zero,20037f0 <___vfprintf_internal_r+0x6e0>
 2004a64:	dc800e17 	ldw	r18,56(sp)
 2004a68:	d9000517 	ldw	r4,20(sp)
 2004a6c:	d8c01904 	addi	r3,sp,100
 2004a70:	003f2e06 	br	200472c <___vfprintf_internal_r+0x161c>
 2004a74:	d8c14c17 	ldw	r3,1328(sp)
 2004a78:	1880100c 	andi	r2,r3,64
 2004a7c:	1000a026 	beq	r2,zero,2004d00 <___vfprintf_internal_r+0x1bf0>
 2004a80:	38800017 	ldw	r2,0(r7)
 2004a84:	39c00104 	addi	r7,r7,4
 2004a88:	d9c14015 	stw	r7,1280(sp)
 2004a8c:	d9014b17 	ldw	r4,1324(sp)
 2004a90:	d9c14017 	ldw	r7,1280(sp)
 2004a94:	1100000d 	sth	r4,0(r2)
 2004a98:	0039f906 	br	2003280 <___vfprintf_internal_r+0x170>
 2004a9c:	d9014f17 	ldw	r4,1340(sp)
 2004aa0:	b00b883a 	mov	r5,r22
 2004aa4:	d9800c04 	addi	r6,sp,48
 2004aa8:	20030b80 	call	20030b8 <__sprint_r>
 2004aac:	103b501e 	bne	r2,zero,20037f0 <___vfprintf_internal_r+0x6e0>
 2004ab0:	dc800e17 	ldw	r18,56(sp)
 2004ab4:	dc400d17 	ldw	r17,52(sp)
 2004ab8:	d9000517 	ldw	r4,20(sp)
 2004abc:	d8c01904 	addi	r3,sp,100
 2004ac0:	003f2d06 	br	2004778 <___vfprintf_internal_r+0x1668>
 2004ac4:	00800184 	movi	r2,6
 2004ac8:	14c09a36 	bltu	r2,r19,2004d34 <___vfprintf_internal_r+0x1c24>
 2004acc:	dcc14515 	stw	r19,1300(sp)
 2004ad0:	9800010e 	bge	r19,zero,2004ad8 <___vfprintf_internal_r+0x19c8>
 2004ad4:	d8014515 	stw	zero,1300(sp)
 2004ad8:	00808074 	movhi	r2,513
 2004adc:	10bd1404 	addi	r2,r2,-2992
 2004ae0:	980f883a 	mov	r7,r19
 2004ae4:	d8814115 	stw	r2,1284(sp)
 2004ae8:	003a7806 	br	20034cc <___vfprintf_internal_r+0x3bc>
 2004aec:	00bfffc4 	movi	r2,-1
 2004af0:	9880e226 	beq	r19,r2,2004e7c <___vfprintf_internal_r+0x1d6c>
 2004af4:	d9414d17 	ldw	r5,1332(sp)
 2004af8:	008019c4 	movi	r2,103
 2004afc:	2880dc26 	beq	r5,r2,2004e70 <___vfprintf_internal_r+0x1d60>
 2004b00:	008011c4 	movi	r2,71
 2004b04:	2880da26 	beq	r5,r2,2004e70 <___vfprintf_internal_r+0x1d60>
 2004b08:	d9414c17 	ldw	r5,1328(sp)
 2004b0c:	d9014317 	ldw	r4,1292(sp)
 2004b10:	d9814217 	ldw	r6,1288(sp)
 2004b14:	29404014 	ori	r5,r5,256
 2004b18:	d9414c15 	stw	r5,1328(sp)
 2004b1c:	2000cc16 	blt	r4,zero,2004e50 <___vfprintf_internal_r+0x1d40>
 2004b20:	3021883a 	mov	r16,r6
 2004b24:	2023883a 	mov	r17,r4
 2004b28:	0039883a 	mov	fp,zero
 2004b2c:	d9414d17 	ldw	r5,1332(sp)
 2004b30:	00801984 	movi	r2,102
 2004b34:	2880b726 	beq	r5,r2,2004e14 <___vfprintf_internal_r+0x1d04>
 2004b38:	00801184 	movi	r2,70
 2004b3c:	2880b526 	beq	r5,r2,2004e14 <___vfprintf_internal_r+0x1d04>
 2004b40:	00801944 	movi	r2,101
 2004b44:	2880c826 	beq	r5,r2,2004e68 <___vfprintf_internal_r+0x1d58>
 2004b48:	00801144 	movi	r2,69
 2004b4c:	2880c626 	beq	r5,r2,2004e68 <___vfprintf_internal_r+0x1d58>
 2004b50:	9829883a 	mov	r20,r19
 2004b54:	d9014f17 	ldw	r4,1340(sp)
 2004b58:	d8800504 	addi	r2,sp,20
 2004b5c:	880d883a 	mov	r6,r17
 2004b60:	d8800115 	stw	r2,4(sp)
 2004b64:	d8c00604 	addi	r3,sp,24
 2004b68:	d8800704 	addi	r2,sp,28
 2004b6c:	800b883a 	mov	r5,r16
 2004b70:	01c00084 	movi	r7,2
 2004b74:	d8c00215 	stw	r3,8(sp)
 2004b78:	d8800315 	stw	r2,12(sp)
 2004b7c:	dd000015 	stw	r20,0(sp)
 2004b80:	200541c0 	call	200541c <_dtoa_r>
 2004b84:	d9814d17 	ldw	r6,1332(sp)
 2004b88:	d8814115 	stw	r2,1284(sp)
 2004b8c:	008019c4 	movi	r2,103
 2004b90:	30809526 	beq	r6,r2,2004de8 <___vfprintf_internal_r+0x1cd8>
 2004b94:	d8c14d17 	ldw	r3,1332(sp)
 2004b98:	008011c4 	movi	r2,71
 2004b9c:	18809226 	beq	r3,r2,2004de8 <___vfprintf_internal_r+0x1cd8>
 2004ba0:	d9414117 	ldw	r5,1284(sp)
 2004ba4:	d9814d17 	ldw	r6,1332(sp)
 2004ba8:	00801984 	movi	r2,102
 2004bac:	2d25883a 	add	r18,r5,r20
 2004bb0:	30808626 	beq	r6,r2,2004dcc <___vfprintf_internal_r+0x1cbc>
 2004bb4:	00801184 	movi	r2,70
 2004bb8:	30808426 	beq	r6,r2,2004dcc <___vfprintf_internal_r+0x1cbc>
 2004bbc:	000d883a 	mov	r6,zero
 2004bc0:	000f883a 	mov	r7,zero
 2004bc4:	880b883a 	mov	r5,r17
 2004bc8:	8009883a 	mov	r4,r16
 2004bcc:	200aee80 	call	200aee8 <__eqdf2>
 2004bd0:	1000751e 	bne	r2,zero,2004da8 <___vfprintf_internal_r+0x1c98>
 2004bd4:	9005883a 	mov	r2,r18
 2004bd8:	dc800715 	stw	r18,28(sp)
 2004bdc:	d9014117 	ldw	r4,1284(sp)
 2004be0:	d9414d17 	ldw	r5,1332(sp)
 2004be4:	00c019c4 	movi	r3,103
 2004be8:	1125c83a 	sub	r18,r2,r4
 2004bec:	28c06826 	beq	r5,r3,2004d90 <___vfprintf_internal_r+0x1c80>
 2004bf0:	008011c4 	movi	r2,71
 2004bf4:	28806626 	beq	r5,r2,2004d90 <___vfprintf_internal_r+0x1c80>
 2004bf8:	d9000517 	ldw	r4,20(sp)
 2004bfc:	d8c14d17 	ldw	r3,1332(sp)
 2004c00:	00801944 	movi	r2,101
 2004c04:	10c05516 	blt	r2,r3,2004d5c <___vfprintf_internal_r+0x1c4c>
 2004c08:	213fffc4 	addi	r4,r4,-1
 2004c0c:	d9000515 	stw	r4,20(sp)
 2004c10:	d8c00805 	stb	r3,32(sp)
 2004c14:	2021883a 	mov	r16,r4
 2004c18:	2000c116 	blt	r4,zero,2004f20 <___vfprintf_internal_r+0x1e10>
 2004c1c:	00800ac4 	movi	r2,43
 2004c20:	d8800845 	stb	r2,33(sp)
 2004c24:	00800244 	movi	r2,9
 2004c28:	1400af0e 	bge	r2,r16,2004ee8 <___vfprintf_internal_r+0x1dd8>
 2004c2c:	1027883a 	mov	r19,r2
 2004c30:	dc400b84 	addi	r17,sp,46
 2004c34:	8009883a 	mov	r4,r16
 2004c38:	01400284 	movi	r5,10
 2004c3c:	20011740 	call	2001174 <__modsi3>
 2004c40:	10800c04 	addi	r2,r2,48
 2004c44:	8c7fffc4 	addi	r17,r17,-1
 2004c48:	8009883a 	mov	r4,r16
 2004c4c:	01400284 	movi	r5,10
 2004c50:	88800005 	stb	r2,0(r17)
 2004c54:	20011140 	call	2001114 <__divsi3>
 2004c58:	1021883a 	mov	r16,r2
 2004c5c:	98bff516 	blt	r19,r2,2004c34 <___vfprintf_internal_r+0x1b24>
 2004c60:	10c00c04 	addi	r3,r2,48
 2004c64:	d88009c4 	addi	r2,sp,39
 2004c68:	108001c4 	addi	r2,r2,7
 2004c6c:	897fffc4 	addi	r5,r17,-1
 2004c70:	88ffffc5 	stb	r3,-1(r17)
 2004c74:	2880a72e 	bgeu	r5,r2,2004f14 <___vfprintf_internal_r+0x1e04>
 2004c78:	1009883a 	mov	r4,r2
 2004c7c:	d9800804 	addi	r6,sp,32
 2004c80:	d8c00884 	addi	r3,sp,34
 2004c84:	28800003 	ldbu	r2,0(r5)
 2004c88:	29400044 	addi	r5,r5,1
 2004c8c:	18800005 	stb	r2,0(r3)
 2004c90:	18c00044 	addi	r3,r3,1
 2004c94:	293ffb36 	bltu	r5,r4,2004c84 <___vfprintf_internal_r+0x1b74>
 2004c98:	1987c83a 	sub	r3,r3,r6
 2004c9c:	00800044 	movi	r2,1
 2004ca0:	d8c14815 	stw	r3,1312(sp)
 2004ca4:	90cf883a 	add	r7,r18,r3
 2004ca8:	1480960e 	bge	r2,r18,2004f04 <___vfprintf_internal_r+0x1df4>
 2004cac:	39c00044 	addi	r7,r7,1
 2004cb0:	d9c14515 	stw	r7,1300(sp)
 2004cb4:	38003416 	blt	r7,zero,2004d88 <___vfprintf_internal_r+0x1c78>
 2004cb8:	e0803fcc 	andi	r2,fp,255
 2004cbc:	1080201c 	xori	r2,r2,128
 2004cc0:	10bfe004 	addi	r2,r2,-128
 2004cc4:	10004e26 	beq	r2,zero,2004e00 <___vfprintf_internal_r+0x1cf0>
 2004cc8:	00800b44 	movi	r2,45
 2004ccc:	dc814715 	stw	r18,1308(sp)
 2004cd0:	d8014615 	stw	zero,1304(sp)
 2004cd4:	d8800405 	stb	r2,16(sp)
 2004cd8:	003bb106 	br	2003ba0 <___vfprintf_internal_r+0xa90>
 2004cdc:	00800b44 	movi	r2,45
 2004ce0:	d8800405 	stb	r2,16(sp)
 2004ce4:	003d3306 	br	20041b4 <___vfprintf_internal_r+0x10a4>
 2004ce8:	d9014f17 	ldw	r4,1340(sp)
 2004cec:	b00b883a 	mov	r5,r22
 2004cf0:	d9800c04 	addi	r6,sp,48
 2004cf4:	20030b80 	call	20030b8 <__sprint_r>
 2004cf8:	103abd1e 	bne	r2,zero,20037f0 <___vfprintf_internal_r+0x6e0>
 2004cfc:	003abb06 	br	20037ec <___vfprintf_internal_r+0x6dc>
 2004d00:	38800017 	ldw	r2,0(r7)
 2004d04:	39c00104 	addi	r7,r7,4
 2004d08:	d9c14015 	stw	r7,1280(sp)
 2004d0c:	d9414b17 	ldw	r5,1324(sp)
 2004d10:	d9c14017 	ldw	r7,1280(sp)
 2004d14:	11400015 	stw	r5,0(r2)
 2004d18:	00395906 	br	2003280 <___vfprintf_internal_r+0x170>
 2004d1c:	980f883a 	mov	r7,r19
 2004d20:	dcc14515 	stw	r19,1300(sp)
 2004d24:	d8014615 	stw	zero,1304(sp)
 2004d28:	003b9b06 	br	2003b98 <___vfprintf_internal_r+0xa88>
 2004d2c:	0027883a 	mov	r19,zero
 2004d30:	00397806 	br	2003314 <___vfprintf_internal_r+0x204>
 2004d34:	00c08074 	movhi	r3,513
 2004d38:	18fd1404 	addi	r3,r3,-2992
 2004d3c:	100f883a 	mov	r7,r2
 2004d40:	d8814515 	stw	r2,1300(sp)
 2004d44:	d8c14115 	stw	r3,1284(sp)
 2004d48:	0039e006 	br	20034cc <___vfprintf_internal_r+0x3bc>
 2004d4c:	00808074 	movhi	r2,513
 2004d50:	10bd1304 	addi	r2,r2,-2996
 2004d54:	d8814115 	stw	r2,1284(sp)
 2004d58:	003d1c06 	br	20041cc <___vfprintf_internal_r+0x10bc>
 2004d5c:	d9414d17 	ldw	r5,1332(sp)
 2004d60:	00801984 	movi	r2,102
 2004d64:	28804926 	beq	r5,r2,2004e8c <___vfprintf_internal_r+0x1d7c>
 2004d68:	200f883a 	mov	r7,r4
 2004d6c:	24805716 	blt	r4,r18,2004ecc <___vfprintf_internal_r+0x1dbc>
 2004d70:	d9414c17 	ldw	r5,1328(sp)
 2004d74:	2880004c 	andi	r2,r5,1
 2004d78:	10000126 	beq	r2,zero,2004d80 <___vfprintf_internal_r+0x1c70>
 2004d7c:	21c00044 	addi	r7,r4,1
 2004d80:	d9c14515 	stw	r7,1300(sp)
 2004d84:	383fcc0e 	bge	r7,zero,2004cb8 <___vfprintf_internal_r+0x1ba8>
 2004d88:	d8014515 	stw	zero,1300(sp)
 2004d8c:	003fca06 	br	2004cb8 <___vfprintf_internal_r+0x1ba8>
 2004d90:	d9000517 	ldw	r4,20(sp)
 2004d94:	00bfff04 	movi	r2,-4
 2004d98:	1100480e 	bge	r2,r4,2004ebc <___vfprintf_internal_r+0x1dac>
 2004d9c:	99004716 	blt	r19,r4,2004ebc <___vfprintf_internal_r+0x1dac>
 2004da0:	d8c14d15 	stw	r3,1332(sp)
 2004da4:	003ff006 	br	2004d68 <___vfprintf_internal_r+0x1c58>
 2004da8:	d8800717 	ldw	r2,28(sp)
 2004dac:	14bf8b2e 	bgeu	r2,r18,2004bdc <___vfprintf_internal_r+0x1acc>
 2004db0:	9007883a 	mov	r3,r18
 2004db4:	01000c04 	movi	r4,48
 2004db8:	11000005 	stb	r4,0(r2)
 2004dbc:	10800044 	addi	r2,r2,1
 2004dc0:	d8800715 	stw	r2,28(sp)
 2004dc4:	18bffc1e 	bne	r3,r2,2004db8 <___vfprintf_internal_r+0x1ca8>
 2004dc8:	003f8406 	br	2004bdc <___vfprintf_internal_r+0x1acc>
 2004dcc:	d8814117 	ldw	r2,1284(sp)
 2004dd0:	10c00007 	ldb	r3,0(r2)
 2004dd4:	00800c04 	movi	r2,48
 2004dd8:	18805b26 	beq	r3,r2,2004f48 <___vfprintf_internal_r+0x1e38>
 2004ddc:	d9000517 	ldw	r4,20(sp)
 2004de0:	9125883a 	add	r18,r18,r4
 2004de4:	003f7506 	br	2004bbc <___vfprintf_internal_r+0x1aac>
 2004de8:	d9014c17 	ldw	r4,1328(sp)
 2004dec:	2080004c 	andi	r2,r4,1
 2004df0:	1005003a 	cmpeq	r2,r2,zero
 2004df4:	103f6a26 	beq	r2,zero,2004ba0 <___vfprintf_internal_r+0x1a90>
 2004df8:	d8800717 	ldw	r2,28(sp)
 2004dfc:	003f7706 	br	2004bdc <___vfprintf_internal_r+0x1acc>
 2004e00:	d9c14515 	stw	r7,1300(sp)
 2004e04:	38004d16 	blt	r7,zero,2004f3c <___vfprintf_internal_r+0x1e2c>
 2004e08:	dc814715 	stw	r18,1308(sp)
 2004e0c:	d8014615 	stw	zero,1304(sp)
 2004e10:	003b6106 	br	2003b98 <___vfprintf_internal_r+0xa88>
 2004e14:	d9014f17 	ldw	r4,1340(sp)
 2004e18:	d8800504 	addi	r2,sp,20
 2004e1c:	d8800115 	stw	r2,4(sp)
 2004e20:	d8c00604 	addi	r3,sp,24
 2004e24:	d8800704 	addi	r2,sp,28
 2004e28:	800b883a 	mov	r5,r16
 2004e2c:	880d883a 	mov	r6,r17
 2004e30:	01c000c4 	movi	r7,3
 2004e34:	d8c00215 	stw	r3,8(sp)
 2004e38:	d8800315 	stw	r2,12(sp)
 2004e3c:	dcc00015 	stw	r19,0(sp)
 2004e40:	9829883a 	mov	r20,r19
 2004e44:	200541c0 	call	200541c <_dtoa_r>
 2004e48:	d8814115 	stw	r2,1284(sp)
 2004e4c:	003f5106 	br	2004b94 <___vfprintf_internal_r+0x1a84>
 2004e50:	d8c14217 	ldw	r3,1288(sp)
 2004e54:	d9014317 	ldw	r4,1292(sp)
 2004e58:	07000b44 	movi	fp,45
 2004e5c:	1821883a 	mov	r16,r3
 2004e60:	2460003c 	xorhi	r17,r4,32768
 2004e64:	003f3106 	br	2004b2c <___vfprintf_internal_r+0x1a1c>
 2004e68:	9d000044 	addi	r20,r19,1
 2004e6c:	003f3906 	br	2004b54 <___vfprintf_internal_r+0x1a44>
 2004e70:	983f251e 	bne	r19,zero,2004b08 <___vfprintf_internal_r+0x19f8>
 2004e74:	04c00044 	movi	r19,1
 2004e78:	003f2306 	br	2004b08 <___vfprintf_internal_r+0x19f8>
 2004e7c:	04c00184 	movi	r19,6
 2004e80:	003f2106 	br	2004b08 <___vfprintf_internal_r+0x19f8>
 2004e84:	d8014515 	stw	zero,1300(sp)
 2004e88:	003eee06 	br	2004a44 <___vfprintf_internal_r+0x1934>
 2004e8c:	200f883a 	mov	r7,r4
 2004e90:	0100370e 	bge	zero,r4,2004f70 <___vfprintf_internal_r+0x1e60>
 2004e94:	9800031e 	bne	r19,zero,2004ea4 <___vfprintf_internal_r+0x1d94>
 2004e98:	d9814c17 	ldw	r6,1328(sp)
 2004e9c:	3080004c 	andi	r2,r6,1
 2004ea0:	103fb726 	beq	r2,zero,2004d80 <___vfprintf_internal_r+0x1c70>
 2004ea4:	20800044 	addi	r2,r4,1
 2004ea8:	98a7883a 	add	r19,r19,r2
 2004eac:	dcc14515 	stw	r19,1300(sp)
 2004eb0:	980f883a 	mov	r7,r19
 2004eb4:	983f800e 	bge	r19,zero,2004cb8 <___vfprintf_internal_r+0x1ba8>
 2004eb8:	003fb306 	br	2004d88 <___vfprintf_internal_r+0x1c78>
 2004ebc:	d9814d17 	ldw	r6,1332(sp)
 2004ec0:	31bfff84 	addi	r6,r6,-2
 2004ec4:	d9814d15 	stw	r6,1332(sp)
 2004ec8:	003f4c06 	br	2004bfc <___vfprintf_internal_r+0x1aec>
 2004ecc:	0100180e 	bge	zero,r4,2004f30 <___vfprintf_internal_r+0x1e20>
 2004ed0:	00800044 	movi	r2,1
 2004ed4:	1485883a 	add	r2,r2,r18
 2004ed8:	d8814515 	stw	r2,1300(sp)
 2004edc:	100f883a 	mov	r7,r2
 2004ee0:	103f750e 	bge	r2,zero,2004cb8 <___vfprintf_internal_r+0x1ba8>
 2004ee4:	003fa806 	br	2004d88 <___vfprintf_internal_r+0x1c78>
 2004ee8:	80c00c04 	addi	r3,r16,48
 2004eec:	00800c04 	movi	r2,48
 2004ef0:	d8c008c5 	stb	r3,35(sp)
 2004ef4:	d9800804 	addi	r6,sp,32
 2004ef8:	d8c00904 	addi	r3,sp,36
 2004efc:	d8800885 	stb	r2,34(sp)
 2004f00:	003f6506 	br	2004c98 <___vfprintf_internal_r+0x1b88>
 2004f04:	d9014c17 	ldw	r4,1328(sp)
 2004f08:	2084703a 	and	r2,r4,r2
 2004f0c:	103f9c26 	beq	r2,zero,2004d80 <___vfprintf_internal_r+0x1c70>
 2004f10:	003f6606 	br	2004cac <___vfprintf_internal_r+0x1b9c>
 2004f14:	d9800804 	addi	r6,sp,32
 2004f18:	d8c00884 	addi	r3,sp,34
 2004f1c:	003f5e06 	br	2004c98 <___vfprintf_internal_r+0x1b88>
 2004f20:	00800b44 	movi	r2,45
 2004f24:	0121c83a 	sub	r16,zero,r4
 2004f28:	d8800845 	stb	r2,33(sp)
 2004f2c:	003f3d06 	br	2004c24 <___vfprintf_internal_r+0x1b14>
 2004f30:	00800084 	movi	r2,2
 2004f34:	1105c83a 	sub	r2,r2,r4
 2004f38:	003fe606 	br	2004ed4 <___vfprintf_internal_r+0x1dc4>
 2004f3c:	d8014515 	stw	zero,1300(sp)
 2004f40:	dc814715 	stw	r18,1308(sp)
 2004f44:	003fb106 	br	2004e0c <___vfprintf_internal_r+0x1cfc>
 2004f48:	000d883a 	mov	r6,zero
 2004f4c:	000f883a 	mov	r7,zero
 2004f50:	8009883a 	mov	r4,r16
 2004f54:	880b883a 	mov	r5,r17
 2004f58:	200af700 	call	200af70 <__nedf2>
 2004f5c:	103f9f26 	beq	r2,zero,2004ddc <___vfprintf_internal_r+0x1ccc>
 2004f60:	00800044 	movi	r2,1
 2004f64:	1509c83a 	sub	r4,r2,r20
 2004f68:	d9000515 	stw	r4,20(sp)
 2004f6c:	003f9b06 	br	2004ddc <___vfprintf_internal_r+0x1ccc>
 2004f70:	98000d1e 	bne	r19,zero,2004fa8 <___vfprintf_internal_r+0x1e98>
 2004f74:	d8c14c17 	ldw	r3,1328(sp)
 2004f78:	1880004c 	andi	r2,r3,1
 2004f7c:	10000a1e 	bne	r2,zero,2004fa8 <___vfprintf_internal_r+0x1e98>
 2004f80:	01000044 	movi	r4,1
 2004f84:	200f883a 	mov	r7,r4
 2004f88:	d9014515 	stw	r4,1300(sp)
 2004f8c:	003f4a06 	br	2004cb8 <___vfprintf_internal_r+0x1ba8>
 2004f90:	3cc00017 	ldw	r19,0(r7)
 2004f94:	39c00104 	addi	r7,r7,4
 2004f98:	983d0e0e 	bge	r19,zero,20043d4 <___vfprintf_internal_r+0x12c4>
 2004f9c:	b8c00007 	ldb	r3,0(r23)
 2004fa0:	04ffffc4 	movi	r19,-1
 2004fa4:	0038d906 	br	200330c <___vfprintf_internal_r+0x1fc>
 2004fa8:	9cc00084 	addi	r19,r19,2
 2004fac:	dcc14515 	stw	r19,1300(sp)
 2004fb0:	980f883a 	mov	r7,r19
 2004fb4:	983f400e 	bge	r19,zero,2004cb8 <___vfprintf_internal_r+0x1ba8>
 2004fb8:	003f7306 	br	2004d88 <___vfprintf_internal_r+0x1c78>

02004fbc <__vfprintf_internal>:
 2004fbc:	00808074 	movhi	r2,513
 2004fc0:	10850f04 	addi	r2,r2,5180
 2004fc4:	2013883a 	mov	r9,r4
 2004fc8:	11000017 	ldw	r4,0(r2)
 2004fcc:	2805883a 	mov	r2,r5
 2004fd0:	300f883a 	mov	r7,r6
 2004fd4:	480b883a 	mov	r5,r9
 2004fd8:	100d883a 	mov	r6,r2
 2004fdc:	20031101 	jmpi	2003110 <___vfprintf_internal_r>

02004fe0 <_write_r>:
 2004fe0:	defffd04 	addi	sp,sp,-12
 2004fe4:	dc000015 	stw	r16,0(sp)
 2004fe8:	04008074 	movhi	r16,513
 2004fec:	840c0604 	addi	r16,r16,12312
 2004ff0:	dc400115 	stw	r17,4(sp)
 2004ff4:	80000015 	stw	zero,0(r16)
 2004ff8:	2023883a 	mov	r17,r4
 2004ffc:	2809883a 	mov	r4,r5
 2005000:	300b883a 	mov	r5,r6
 2005004:	380d883a 	mov	r6,r7
 2005008:	dfc00215 	stw	ra,8(sp)
 200500c:	200c3880 	call	200c388 <write>
 2005010:	1007883a 	mov	r3,r2
 2005014:	00bfffc4 	movi	r2,-1
 2005018:	18800626 	beq	r3,r2,2005034 <_write_r+0x54>
 200501c:	1805883a 	mov	r2,r3
 2005020:	dfc00217 	ldw	ra,8(sp)
 2005024:	dc400117 	ldw	r17,4(sp)
 2005028:	dc000017 	ldw	r16,0(sp)
 200502c:	dec00304 	addi	sp,sp,12
 2005030:	f800283a 	ret
 2005034:	80800017 	ldw	r2,0(r16)
 2005038:	103ff826 	beq	r2,zero,200501c <_write_r+0x3c>
 200503c:	88800015 	stw	r2,0(r17)
 2005040:	1805883a 	mov	r2,r3
 2005044:	dfc00217 	ldw	ra,8(sp)
 2005048:	dc400117 	ldw	r17,4(sp)
 200504c:	dc000017 	ldw	r16,0(sp)
 2005050:	dec00304 	addi	sp,sp,12
 2005054:	f800283a 	ret

02005058 <__swsetup_r>:
 2005058:	00808074 	movhi	r2,513
 200505c:	10850f04 	addi	r2,r2,5180
 2005060:	10c00017 	ldw	r3,0(r2)
 2005064:	defffd04 	addi	sp,sp,-12
 2005068:	dc400115 	stw	r17,4(sp)
 200506c:	dc000015 	stw	r16,0(sp)
 2005070:	dfc00215 	stw	ra,8(sp)
 2005074:	2023883a 	mov	r17,r4
 2005078:	2821883a 	mov	r16,r5
 200507c:	18000226 	beq	r3,zero,2005088 <__swsetup_r+0x30>
 2005080:	18800e17 	ldw	r2,56(r3)
 2005084:	10001f26 	beq	r2,zero,2005104 <__swsetup_r+0xac>
 2005088:	8100030b 	ldhu	r4,12(r16)
 200508c:	2080020c 	andi	r2,r4,8
 2005090:	10002826 	beq	r2,zero,2005134 <__swsetup_r+0xdc>
 2005094:	81400417 	ldw	r5,16(r16)
 2005098:	28001d26 	beq	r5,zero,2005110 <__swsetup_r+0xb8>
 200509c:	2080004c 	andi	r2,r4,1
 20050a0:	1005003a 	cmpeq	r2,r2,zero
 20050a4:	10000b26 	beq	r2,zero,20050d4 <__swsetup_r+0x7c>
 20050a8:	2080008c 	andi	r2,r4,2
 20050ac:	10001226 	beq	r2,zero,20050f8 <__swsetup_r+0xa0>
 20050b0:	0005883a 	mov	r2,zero
 20050b4:	80800215 	stw	r2,8(r16)
 20050b8:	28000b26 	beq	r5,zero,20050e8 <__swsetup_r+0x90>
 20050bc:	0005883a 	mov	r2,zero
 20050c0:	dfc00217 	ldw	ra,8(sp)
 20050c4:	dc400117 	ldw	r17,4(sp)
 20050c8:	dc000017 	ldw	r16,0(sp)
 20050cc:	dec00304 	addi	sp,sp,12
 20050d0:	f800283a 	ret
 20050d4:	80800517 	ldw	r2,20(r16)
 20050d8:	80000215 	stw	zero,8(r16)
 20050dc:	0085c83a 	sub	r2,zero,r2
 20050e0:	80800615 	stw	r2,24(r16)
 20050e4:	283ff51e 	bne	r5,zero,20050bc <__swsetup_r+0x64>
 20050e8:	2080200c 	andi	r2,r4,128
 20050ec:	103ff326 	beq	r2,zero,20050bc <__swsetup_r+0x64>
 20050f0:	00bfffc4 	movi	r2,-1
 20050f4:	003ff206 	br	20050c0 <__swsetup_r+0x68>
 20050f8:	80800517 	ldw	r2,20(r16)
 20050fc:	80800215 	stw	r2,8(r16)
 2005100:	003fed06 	br	20050b8 <__swsetup_r+0x60>
 2005104:	1809883a 	mov	r4,r3
 2005108:	2006c680 	call	2006c68 <__sinit>
 200510c:	003fde06 	br	2005088 <__swsetup_r+0x30>
 2005110:	20c0a00c 	andi	r3,r4,640
 2005114:	00808004 	movi	r2,512
 2005118:	18bfe026 	beq	r3,r2,200509c <__swsetup_r+0x44>
 200511c:	8809883a 	mov	r4,r17
 2005120:	800b883a 	mov	r5,r16
 2005124:	20021400 	call	2002140 <__smakebuf_r>
 2005128:	8100030b 	ldhu	r4,12(r16)
 200512c:	81400417 	ldw	r5,16(r16)
 2005130:	003fda06 	br	200509c <__swsetup_r+0x44>
 2005134:	2080040c 	andi	r2,r4,16
 2005138:	103fed26 	beq	r2,zero,20050f0 <__swsetup_r+0x98>
 200513c:	2080010c 	andi	r2,r4,4
 2005140:	10001226 	beq	r2,zero,200518c <__swsetup_r+0x134>
 2005144:	81400c17 	ldw	r5,48(r16)
 2005148:	28000526 	beq	r5,zero,2005160 <__swsetup_r+0x108>
 200514c:	80801004 	addi	r2,r16,64
 2005150:	28800226 	beq	r5,r2,200515c <__swsetup_r+0x104>
 2005154:	8809883a 	mov	r4,r17
 2005158:	200708c0 	call	200708c <_free_r>
 200515c:	80000c15 	stw	zero,48(r16)
 2005160:	8080030b 	ldhu	r2,12(r16)
 2005164:	81400417 	ldw	r5,16(r16)
 2005168:	80000115 	stw	zero,4(r16)
 200516c:	10bff6cc 	andi	r2,r2,65499
 2005170:	8080030d 	sth	r2,12(r16)
 2005174:	81400015 	stw	r5,0(r16)
 2005178:	8080030b 	ldhu	r2,12(r16)
 200517c:	10800214 	ori	r2,r2,8
 2005180:	113fffcc 	andi	r4,r2,65535
 2005184:	8080030d 	sth	r2,12(r16)
 2005188:	003fc306 	br	2005098 <__swsetup_r+0x40>
 200518c:	81400417 	ldw	r5,16(r16)
 2005190:	003ff906 	br	2005178 <__swsetup_r+0x120>

02005194 <_close_r>:
 2005194:	defffd04 	addi	sp,sp,-12
 2005198:	dc000015 	stw	r16,0(sp)
 200519c:	04008074 	movhi	r16,513
 20051a0:	840c0604 	addi	r16,r16,12312
 20051a4:	dc400115 	stw	r17,4(sp)
 20051a8:	80000015 	stw	zero,0(r16)
 20051ac:	2023883a 	mov	r17,r4
 20051b0:	2809883a 	mov	r4,r5
 20051b4:	dfc00215 	stw	ra,8(sp)
 20051b8:	200b3740 	call	200b374 <close>
 20051bc:	1007883a 	mov	r3,r2
 20051c0:	00bfffc4 	movi	r2,-1
 20051c4:	18800626 	beq	r3,r2,20051e0 <_close_r+0x4c>
 20051c8:	1805883a 	mov	r2,r3
 20051cc:	dfc00217 	ldw	ra,8(sp)
 20051d0:	dc400117 	ldw	r17,4(sp)
 20051d4:	dc000017 	ldw	r16,0(sp)
 20051d8:	dec00304 	addi	sp,sp,12
 20051dc:	f800283a 	ret
 20051e0:	80800017 	ldw	r2,0(r16)
 20051e4:	103ff826 	beq	r2,zero,20051c8 <_close_r+0x34>
 20051e8:	88800015 	stw	r2,0(r17)
 20051ec:	1805883a 	mov	r2,r3
 20051f0:	dfc00217 	ldw	ra,8(sp)
 20051f4:	dc400117 	ldw	r17,4(sp)
 20051f8:	dc000017 	ldw	r16,0(sp)
 20051fc:	dec00304 	addi	sp,sp,12
 2005200:	f800283a 	ret

02005204 <quorem>:
 2005204:	28c00417 	ldw	r3,16(r5)
 2005208:	20800417 	ldw	r2,16(r4)
 200520c:	defff604 	addi	sp,sp,-40
 2005210:	ddc00715 	stw	r23,28(sp)
 2005214:	dd400515 	stw	r21,20(sp)
 2005218:	dfc00915 	stw	ra,36(sp)
 200521c:	df000815 	stw	fp,32(sp)
 2005220:	dd800615 	stw	r22,24(sp)
 2005224:	dd000415 	stw	r20,16(sp)
 2005228:	dcc00315 	stw	r19,12(sp)
 200522c:	dc800215 	stw	r18,8(sp)
 2005230:	dc400115 	stw	r17,4(sp)
 2005234:	dc000015 	stw	r16,0(sp)
 2005238:	202f883a 	mov	r23,r4
 200523c:	282b883a 	mov	r21,r5
 2005240:	10c07416 	blt	r2,r3,2005414 <quorem+0x210>
 2005244:	1c7fffc4 	addi	r17,r3,-1
 2005248:	8c45883a 	add	r2,r17,r17
 200524c:	1085883a 	add	r2,r2,r2
 2005250:	2c000504 	addi	r16,r5,20
 2005254:	24c00504 	addi	r19,r4,20
 2005258:	14ed883a 	add	r22,r2,r19
 200525c:	80a5883a 	add	r18,r16,r2
 2005260:	b7000017 	ldw	fp,0(r22)
 2005264:	91400017 	ldw	r5,0(r18)
 2005268:	e009883a 	mov	r4,fp
 200526c:	29400044 	addi	r5,r5,1
 2005270:	20011d40 	call	20011d4 <__udivsi3>
 2005274:	1029883a 	mov	r20,r2
 2005278:	10003c1e 	bne	r2,zero,200536c <quorem+0x168>
 200527c:	a80b883a 	mov	r5,r21
 2005280:	b809883a 	mov	r4,r23
 2005284:	20080340 	call	2008034 <__mcmp>
 2005288:	10002b16 	blt	r2,zero,2005338 <quorem+0x134>
 200528c:	a5000044 	addi	r20,r20,1
 2005290:	980f883a 	mov	r7,r19
 2005294:	0011883a 	mov	r8,zero
 2005298:	0009883a 	mov	r4,zero
 200529c:	81400017 	ldw	r5,0(r16)
 20052a0:	38c00017 	ldw	r3,0(r7)
 20052a4:	84000104 	addi	r16,r16,4
 20052a8:	28bfffcc 	andi	r2,r5,65535
 20052ac:	2085883a 	add	r2,r4,r2
 20052b0:	11bfffcc 	andi	r6,r2,65535
 20052b4:	193fffcc 	andi	r4,r3,65535
 20052b8:	1004d43a 	srli	r2,r2,16
 20052bc:	280ad43a 	srli	r5,r5,16
 20052c0:	2189c83a 	sub	r4,r4,r6
 20052c4:	2209883a 	add	r4,r4,r8
 20052c8:	1806d43a 	srli	r3,r3,16
 20052cc:	288b883a 	add	r5,r5,r2
 20052d0:	200dd43a 	srai	r6,r4,16
 20052d4:	28bfffcc 	andi	r2,r5,65535
 20052d8:	1887c83a 	sub	r3,r3,r2
 20052dc:	1987883a 	add	r3,r3,r6
 20052e0:	3900000d 	sth	r4,0(r7)
 20052e4:	38c0008d 	sth	r3,2(r7)
 20052e8:	2808d43a 	srli	r4,r5,16
 20052ec:	39c00104 	addi	r7,r7,4
 20052f0:	1811d43a 	srai	r8,r3,16
 20052f4:	943fe92e 	bgeu	r18,r16,200529c <quorem+0x98>
 20052f8:	8c45883a 	add	r2,r17,r17
 20052fc:	1085883a 	add	r2,r2,r2
 2005300:	9885883a 	add	r2,r19,r2
 2005304:	10c00017 	ldw	r3,0(r2)
 2005308:	18000b1e 	bne	r3,zero,2005338 <quorem+0x134>
 200530c:	113fff04 	addi	r4,r2,-4
 2005310:	9900082e 	bgeu	r19,r4,2005334 <quorem+0x130>
 2005314:	10bfff17 	ldw	r2,-4(r2)
 2005318:	10000326 	beq	r2,zero,2005328 <quorem+0x124>
 200531c:	00000506 	br	2005334 <quorem+0x130>
 2005320:	20800017 	ldw	r2,0(r4)
 2005324:	1000031e 	bne	r2,zero,2005334 <quorem+0x130>
 2005328:	213fff04 	addi	r4,r4,-4
 200532c:	8c7fffc4 	addi	r17,r17,-1
 2005330:	993ffb36 	bltu	r19,r4,2005320 <quorem+0x11c>
 2005334:	bc400415 	stw	r17,16(r23)
 2005338:	a005883a 	mov	r2,r20
 200533c:	dfc00917 	ldw	ra,36(sp)
 2005340:	df000817 	ldw	fp,32(sp)
 2005344:	ddc00717 	ldw	r23,28(sp)
 2005348:	dd800617 	ldw	r22,24(sp)
 200534c:	dd400517 	ldw	r21,20(sp)
 2005350:	dd000417 	ldw	r20,16(sp)
 2005354:	dcc00317 	ldw	r19,12(sp)
 2005358:	dc800217 	ldw	r18,8(sp)
 200535c:	dc400117 	ldw	r17,4(sp)
 2005360:	dc000017 	ldw	r16,0(sp)
 2005364:	dec00a04 	addi	sp,sp,40
 2005368:	f800283a 	ret
 200536c:	980f883a 	mov	r7,r19
 2005370:	8011883a 	mov	r8,r16
 2005374:	0013883a 	mov	r9,zero
 2005378:	000d883a 	mov	r6,zero
 200537c:	40c00017 	ldw	r3,0(r8)
 2005380:	39000017 	ldw	r4,0(r7)
 2005384:	42000104 	addi	r8,r8,4
 2005388:	18bfffcc 	andi	r2,r3,65535
 200538c:	a085383a 	mul	r2,r20,r2
 2005390:	1806d43a 	srli	r3,r3,16
 2005394:	217fffcc 	andi	r5,r4,65535
 2005398:	3085883a 	add	r2,r6,r2
 200539c:	11bfffcc 	andi	r6,r2,65535
 20053a0:	a0c7383a 	mul	r3,r20,r3
 20053a4:	1004d43a 	srli	r2,r2,16
 20053a8:	298bc83a 	sub	r5,r5,r6
 20053ac:	2a4b883a 	add	r5,r5,r9
 20053b0:	2008d43a 	srli	r4,r4,16
 20053b4:	1887883a 	add	r3,r3,r2
 20053b8:	280dd43a 	srai	r6,r5,16
 20053bc:	18bfffcc 	andi	r2,r3,65535
 20053c0:	2089c83a 	sub	r4,r4,r2
 20053c4:	2189883a 	add	r4,r4,r6
 20053c8:	3900008d 	sth	r4,2(r7)
 20053cc:	3940000d 	sth	r5,0(r7)
 20053d0:	180cd43a 	srli	r6,r3,16
 20053d4:	39c00104 	addi	r7,r7,4
 20053d8:	2013d43a 	srai	r9,r4,16
 20053dc:	923fe72e 	bgeu	r18,r8,200537c <quorem+0x178>
 20053e0:	e03fa61e 	bne	fp,zero,200527c <quorem+0x78>
 20053e4:	b0ffff04 	addi	r3,r22,-4
 20053e8:	98c0082e 	bgeu	r19,r3,200540c <quorem+0x208>
 20053ec:	b0bfff17 	ldw	r2,-4(r22)
 20053f0:	10000326 	beq	r2,zero,2005400 <quorem+0x1fc>
 20053f4:	00000506 	br	200540c <quorem+0x208>
 20053f8:	18800017 	ldw	r2,0(r3)
 20053fc:	1000031e 	bne	r2,zero,200540c <quorem+0x208>
 2005400:	18ffff04 	addi	r3,r3,-4
 2005404:	8c7fffc4 	addi	r17,r17,-1
 2005408:	98fffb36 	bltu	r19,r3,20053f8 <quorem+0x1f4>
 200540c:	bc400415 	stw	r17,16(r23)
 2005410:	003f9a06 	br	200527c <quorem+0x78>
 2005414:	0005883a 	mov	r2,zero
 2005418:	003fc806 	br	200533c <quorem+0x138>

0200541c <_dtoa_r>:
 200541c:	22001017 	ldw	r8,64(r4)
 2005420:	deffda04 	addi	sp,sp,-152
 2005424:	dd402115 	stw	r21,132(sp)
 2005428:	dd002015 	stw	r20,128(sp)
 200542c:	dc801e15 	stw	r18,120(sp)
 2005430:	dc401d15 	stw	r17,116(sp)
 2005434:	dfc02515 	stw	ra,148(sp)
 2005438:	df002415 	stw	fp,144(sp)
 200543c:	ddc02315 	stw	r23,140(sp)
 2005440:	dd802215 	stw	r22,136(sp)
 2005444:	dcc01f15 	stw	r19,124(sp)
 2005448:	dc001c15 	stw	r16,112(sp)
 200544c:	d9001615 	stw	r4,88(sp)
 2005450:	3023883a 	mov	r17,r6
 2005454:	2829883a 	mov	r20,r5
 2005458:	d9c01715 	stw	r7,92(sp)
 200545c:	dc802817 	ldw	r18,160(sp)
 2005460:	302b883a 	mov	r21,r6
 2005464:	40000a26 	beq	r8,zero,2005490 <_dtoa_r+0x74>
 2005468:	20801117 	ldw	r2,68(r4)
 200546c:	400b883a 	mov	r5,r8
 2005470:	40800115 	stw	r2,4(r8)
 2005474:	20c01117 	ldw	r3,68(r4)
 2005478:	00800044 	movi	r2,1
 200547c:	10c4983a 	sll	r2,r2,r3
 2005480:	40800215 	stw	r2,8(r8)
 2005484:	2007ed80 	call	2007ed8 <_Bfree>
 2005488:	d8c01617 	ldw	r3,88(sp)
 200548c:	18001015 	stw	zero,64(r3)
 2005490:	8800a316 	blt	r17,zero,2005720 <_dtoa_r+0x304>
 2005494:	90000015 	stw	zero,0(r18)
 2005498:	a8dffc2c 	andhi	r3,r21,32752
 200549c:	009ffc34 	movhi	r2,32752
 20054a0:	18809126 	beq	r3,r2,20056e8 <_dtoa_r+0x2cc>
 20054a4:	000d883a 	mov	r6,zero
 20054a8:	000f883a 	mov	r7,zero
 20054ac:	a009883a 	mov	r4,r20
 20054b0:	a80b883a 	mov	r5,r21
 20054b4:	dd001215 	stw	r20,72(sp)
 20054b8:	dd401315 	stw	r21,76(sp)
 20054bc:	200af700 	call	200af70 <__nedf2>
 20054c0:	1000171e 	bne	r2,zero,2005520 <_dtoa_r+0x104>
 20054c4:	d9802717 	ldw	r6,156(sp)
 20054c8:	00800044 	movi	r2,1
 20054cc:	30800015 	stw	r2,0(r6)
 20054d0:	d8802917 	ldw	r2,164(sp)
 20054d4:	10029b26 	beq	r2,zero,2005f44 <_dtoa_r+0xb28>
 20054d8:	d9002917 	ldw	r4,164(sp)
 20054dc:	00808074 	movhi	r2,513
 20054e0:	10bd2244 	addi	r2,r2,-2935
 20054e4:	10ffffc4 	addi	r3,r2,-1
 20054e8:	20800015 	stw	r2,0(r4)
 20054ec:	1805883a 	mov	r2,r3
 20054f0:	dfc02517 	ldw	ra,148(sp)
 20054f4:	df002417 	ldw	fp,144(sp)
 20054f8:	ddc02317 	ldw	r23,140(sp)
 20054fc:	dd802217 	ldw	r22,136(sp)
 2005500:	dd402117 	ldw	r21,132(sp)
 2005504:	dd002017 	ldw	r20,128(sp)
 2005508:	dcc01f17 	ldw	r19,124(sp)
 200550c:	dc801e17 	ldw	r18,120(sp)
 2005510:	dc401d17 	ldw	r17,116(sp)
 2005514:	dc001c17 	ldw	r16,112(sp)
 2005518:	dec02604 	addi	sp,sp,152
 200551c:	f800283a 	ret
 2005520:	d9001617 	ldw	r4,88(sp)
 2005524:	d9401217 	ldw	r5,72(sp)
 2005528:	d8800104 	addi	r2,sp,4
 200552c:	a80d883a 	mov	r6,r21
 2005530:	d9c00204 	addi	r7,sp,8
 2005534:	d8800015 	stw	r2,0(sp)
 2005538:	20085140 	call	2008514 <__d2b>
 200553c:	d8800715 	stw	r2,28(sp)
 2005540:	a804d53a 	srli	r2,r21,20
 2005544:	1101ffcc 	andi	r4,r2,2047
 2005548:	20008626 	beq	r4,zero,2005764 <_dtoa_r+0x348>
 200554c:	d8c01217 	ldw	r3,72(sp)
 2005550:	00800434 	movhi	r2,16
 2005554:	10bfffc4 	addi	r2,r2,-1
 2005558:	ddc00117 	ldw	r23,4(sp)
 200555c:	a884703a 	and	r2,r21,r2
 2005560:	1811883a 	mov	r8,r3
 2005564:	124ffc34 	orhi	r9,r2,16368
 2005568:	25bf0044 	addi	r22,r4,-1023
 200556c:	d8000815 	stw	zero,32(sp)
 2005570:	0005883a 	mov	r2,zero
 2005574:	00cffe34 	movhi	r3,16376
 2005578:	480b883a 	mov	r5,r9
 200557c:	4009883a 	mov	r4,r8
 2005580:	180f883a 	mov	r7,r3
 2005584:	100d883a 	mov	r6,r2
 2005588:	200a7d80 	call	200a7d8 <__subdf3>
 200558c:	0218dbf4 	movhi	r8,25455
 2005590:	4210d844 	addi	r8,r8,17249
 2005594:	024ff4f4 	movhi	r9,16339
 2005598:	4a61e9c4 	addi	r9,r9,-30809
 200559c:	480f883a 	mov	r7,r9
 20055a0:	400d883a 	mov	r6,r8
 20055a4:	180b883a 	mov	r5,r3
 20055a8:	1009883a 	mov	r4,r2
 20055ac:	200a8cc0 	call	200a8cc <__muldf3>
 20055b0:	0222d874 	movhi	r8,35681
 20055b4:	42322cc4 	addi	r8,r8,-14157
 20055b8:	024ff1f4 	movhi	r9,16327
 20055bc:	4a628a04 	addi	r9,r9,-30168
 20055c0:	480f883a 	mov	r7,r9
 20055c4:	400d883a 	mov	r6,r8
 20055c8:	180b883a 	mov	r5,r3
 20055cc:	1009883a 	mov	r4,r2
 20055d0:	200a8580 	call	200a858 <__adddf3>
 20055d4:	b009883a 	mov	r4,r22
 20055d8:	1021883a 	mov	r16,r2
 20055dc:	1823883a 	mov	r17,r3
 20055e0:	2000fa00 	call	2000fa0 <__floatsidf>
 20055e4:	021427f4 	movhi	r8,20639
 20055e8:	421e7ec4 	addi	r8,r8,31227
 20055ec:	024ff4f4 	movhi	r9,16339
 20055f0:	4a5104c4 	addi	r9,r9,17427
 20055f4:	480f883a 	mov	r7,r9
 20055f8:	400d883a 	mov	r6,r8
 20055fc:	180b883a 	mov	r5,r3
 2005600:	1009883a 	mov	r4,r2
 2005604:	200a8cc0 	call	200a8cc <__muldf3>
 2005608:	180f883a 	mov	r7,r3
 200560c:	880b883a 	mov	r5,r17
 2005610:	100d883a 	mov	r6,r2
 2005614:	8009883a 	mov	r4,r16
 2005618:	200a8580 	call	200a858 <__adddf3>
 200561c:	1009883a 	mov	r4,r2
 2005620:	180b883a 	mov	r5,r3
 2005624:	1021883a 	mov	r16,r2
 2005628:	1823883a 	mov	r17,r3
 200562c:	200b1080 	call	200b108 <__fixdfsi>
 2005630:	000d883a 	mov	r6,zero
 2005634:	000f883a 	mov	r7,zero
 2005638:	8009883a 	mov	r4,r16
 200563c:	880b883a 	mov	r5,r17
 2005640:	d8800d15 	stw	r2,52(sp)
 2005644:	2000f180 	call	2000f18 <__ltdf2>
 2005648:	10031716 	blt	r2,zero,20062a8 <_dtoa_r+0xe8c>
 200564c:	d8c00d17 	ldw	r3,52(sp)
 2005650:	00800584 	movi	r2,22
 2005654:	10c1482e 	bgeu	r2,r3,2005b78 <_dtoa_r+0x75c>
